(dp1
S'cv_endtime'
p2
(lp3
F1481565306.932431
aF1481565311.680995
aF1481565315.881871
asS'folds'
p4
I1
sS'cv_starttime'
p5
(lp6
F1481565298.083209
aF1481565307.2204609
aF1481565312.0080619
aF1481565316.1155901
asS'endtime'
p7
(lp8
sS'optimizer'
p9
S'/home/elena/R_ws/automl/HPOlib/optimizers/tpe/hyperopt_august2013_mod'
p10
sS'optimizer_time'
p11
(lp12
sS'instance_order'
p13
(lp14
(I0
I0
tp15
a(I1
I0
tp16
a(I2
I0
tp17
asS'max_wallclock_time'
p18
S''
sS'title'
p19
NsS'trials'
p20
(lp21
(dp22
S'status'
p23
I3
sS'std'
p24
cnumpy.core.multiarray
scalar
p25
(cnumpy
dtype
p26
(S'f8'
I0
I1
tRp27
(I3
S'<'
NNNI-1
I-1
I0
tbS'\x00\x00\x00\x00\x00\x00\x00\x00'
tRp28
sS'test_additional_data'
p29
ccollections
defaultdict
p30
(c__builtin__
str
p31
tRp32
sS'test_duration'
p33
Fnan
sS'instance_results'
p34
cnumpy.core.multiarray
_reconstruct
p35
(cnumpy
ndarray
p36
(I0
tS'b'
tRp37
(I1
(I1
tg26
(S'f8'
I0
I1
tRp38
(I3
S'<'
NNNI-1
I-1
I0
tbI00
S'\x0b\xefr\x11\xdf\x89\xbd?'
tbsS'test_std'
p39
Fnan
sS'instance_status'
p40
g35
(g36
(I0
tS'b'
tRp41
(I1
(I1
tg26
(S'i8'
I0
I1
tRp42
(I3
S'<'
NNNI-1
I-1
I0
tbI00
S'\x03\x00\x00\x00\x00\x00\x00\x00'
tbsS'test_instance_durations'
p43
g35
(g36
(I0
tS'b'
tRp44
(I1
(I1
tg38
I00
S'\x00\x00\x00\x00\x00\x00\xf8\x7f'
tbsS'params'
p45
ccollections
OrderedDict
p46
((lp47
(lp48
S'C'
aS'17.0'
p49
aa(lp50
S'Sigma'
p51
aS'5.42128606113'
p52
aatRp53
sS'result'
p54
g25
(g27
S'\x0b\xefr\x11\xdf\x89\xbd?'
tRp55
sS'test_instance_status'
p56
g35
(g36
(I0
tS'b'
tRp57
(I1
(I1
tg42
I00
S'\x00\x00\x00\x00\x00\x00\x00\x00'
tbsS'duration'
p58
g25
(g27
S'\xdf7\xbe\xf6\xccR!@'
tRp59
sS'test_status'
p60
I0
sS'test_result'
p61
Fnan
sS'test_instance_results'
p62
g35
(g36
(I0
tS'b'
tRp63
(I1
(I1
tg38
I00
S'\x00\x00\x00\x00\x00\x00\xf8\x7f'
tbsS'additional_data'
p64
g30
(g31
tRp65
I0
S'../benchmark_svm.py'
p66
ssS'instance_durations'
p67
g35
(g36
(I0
tS'b'
tRp68
(I1
(I1
tg38
I00
S'\xdf7\xbe\xf6\xccR!@'
tbsa(dp69
S'status'
p70
I3
sS'std'
p71
g25
(g27
S'\x00\x00\x00\x00\x00\x00\x00\x00'
tRp72
sS'test_additional_data'
p73
g30
(g31
tRp74
sS'test_duration'
p75
Fnan
sS'instance_results'
p76
g35
(g36
(I0
tS'b'
tRp77
(I1
(I1
tg26
(S'f8'
I0
I1
tRp78
(I3
S'<'
NNNI-1
I-1
I0
tbI00
S'\x0b\xefr\x11\xdf\x89\xbd?'
tbsS'test_std'
p79
Fnan
sS'instance_status'
p80
g35
(g36
(I0
tS'b'
tRp81
(I1
(I1
tg26
(S'i8'
I0
I1
tRp82
(I3
S'<'
NNNI-1
I-1
I0
tbI00
S'\x03\x00\x00\x00\x00\x00\x00\x00'
tbsS'test_instance_durations'
p83
g35
(g36
(I0
tS'b'
tRp84
(I1
(I1
tg78
I00
S'\x00\x00\x00\x00\x00\x00\xf8\x7f'
tbsS'params'
p85
g46
((lp86
(lp87
S'C'
aS'1.0'
p88
aa(lp89
S'Sigma'
p90
aS'5.66793372785'
p91
aatRp92
sS'result'
p93
g25
(g27
S'\x0b\xefr\x11\xdf\x89\xbd?'
tRp94
sS'test_instance_status'
p95
g35
(g36
(I0
tS'b'
tRp96
(I1
(I1
tg82
I00
S'\x00\x00\x00\x00\x00\x00\x00\x00'
tbsS'duration'
p97
g25
(g27
S'\xb08\x9c\xf9\xd5\xfc\x10@'
tRp98
sS'test_status'
p99
I0
sS'test_result'
p100
Fnan
sS'test_instance_results'
p101
g35
(g36
(I0
tS'b'
tRp102
(I1
(I1
tg78
I00
S'\x00\x00\x00\x00\x00\x00\xf8\x7f'
tbsS'additional_data'
p103
g30
(g31
tRp104
I0
S'../benchmark_svm.py'
p105
ssS'instance_durations'
p106
g35
(g36
(I0
tS'b'
tRp107
(I1
(I1
tg78
I00
S'\xb08\x9c\xf9\xd5\xfc\x10@'
tbsa(dp108
S'status'
p109
I3
sS'std'
p110
g25
(g27
S'\x00\x00\x00\x00\x00\x00\x00\x00'
tRp111
sS'test_additional_data'
p112
g30
(g31
tRp113
sS'test_duration'
p114
Fnan
sS'instance_results'
p115
g35
(g36
(I0
tS'b'
tRp116
(I1
(I1
tg26
(S'f8'
I0
I1
tRp117
(I3
S'<'
NNNI-1
I-1
I0
tbI00
S'\x0b\xefr\x11\xdf\x89\xbd?'
tbsS'test_std'
p118
Fnan
sS'instance_status'
p119
g35
(g36
(I0
tS'b'
tRp120
(I1
(I1
tg26
(S'i8'
I0
I1
tRp121
(I3
S'<'
NNNI-1
I-1
I0
tbI00
S'\x03\x00\x00\x00\x00\x00\x00\x00'
tbsS'test_instance_durations'
p122
g35
(g36
(I0
tS'b'
tRp123
(I1
(I1
tg117
I00
S'\x00\x00\x00\x00\x00\x00\xf8\x7f'
tbsS'params'
p124
g46
((lp125
(lp126
S'C'
aS'17.0'
p127
aa(lp128
S'Sigma'
p129
aS'7.16037273347'
p130
aatRp131
sS'result'
p132
g25
(g27
S'\x0b\xefr\x11\xdf\x89\xbd?'
tRp133
sS'test_instance_status'
p134
g35
(g36
(I0
tS'b'
tRp135
(I1
(I1
tg121
I00
S'\x00\x00\x00\x00\x00\x00\x00\x00'
tbsS'duration'
p136
g25
(g27
S'k+\xf6\x97\xddS\x0e@'
tRp137
sS'test_status'
p138
I0
sS'test_result'
p139
Fnan
sS'test_instance_results'
p140
g35
(g36
(I0
tS'b'
tRp141
(I1
(I1
tg117
I00
S'\x00\x00\x00\x00\x00\x00\xf8\x7f'
tbsS'additional_data'
p142
g30
(g31
tRp143
I0
S'../benchmark_svm.py'
p144
ssS'instance_durations'
p145
g35
(g36
(I0
tS'b'
tRp146
(I1
(I1
tg117
I00
S'k+\xf6\x97\xddS\x0e@'
tbsasS'total_wallclock_time'
p147
F16.699580000000001
sS'experiment_name'
p148
S'hyperopt_august2013_mod'
p149
sS'starttime'
p150
(lp151
F1481565297.551544
as.