(dp1
S'cv_endtime'
p2
(lp3
F1481565200.0761609
aF1481565200.52684
aF1481565201.0791731
aF1481565201.548245
aF1481565202.051765
aF1481565202.505264
aF1481565202.9636409
aF1481565203.4271481
aF1481565203.8996119
aF1481565204.4012051
aF1481565204.8664801
aF1481565205.337534
aF1481565205.8413739
aF1481565206.3366849
aF1481565206.8343799
aF1481565207.318769
aF1481565207.8028691
aF1481565208.3533101
asS'folds'
p4
I1
sS'cv_starttime'
p5
(lp6
F1481565199.833312
aF1481565200.267894
aF1481565200.722806
aF1481565201.2890429
aF1481565201.781853
aF1481565202.254962
aF1481565202.7050951
aF1481565203.1707649
aF1481565203.6333859
aF1481565204.1435399
aF1481565204.603662
aF1481565205.069082
aF1481565205.551935
aF1481565206.058188
aF1481565206.5448029
aF1481565207.0502059
aF1481565207.5210381
aF1481565208.014611
asS'endtime'
p7
(lp8
sS'optimizer'
p9
S'/home/elena/R_ws/automl/HPOlib/optimizers/tpe/hyperopt_august2013_mod'
p10
sS'optimizer_time'
p11
(lp12
sS'instance_order'
p13
(lp14
(I0
I0
tp15
a(I1
I0
tp16
a(I2
I0
tp17
a(I3
I0
tp18
a(I4
I0
tp19
a(I5
I0
tp20
a(I6
I0
tp21
a(I7
I0
tp22
a(I8
I0
tp23
a(I9
I0
tp24
a(I10
I0
tp25
a(I11
I0
tp26
a(I12
I0
tp27
a(I13
I0
tp28
a(I14
I0
tp29
a(I15
I0
tp30
a(I16
I0
tp31
a(I17
I0
tp32
asS'max_wallclock_time'
p33
S''
sS'title'
p34
NsS'trials'
p35
(lp36
(dp37
S'status'
p38
I-1
sS'std'
p39
cnumpy.core.multiarray
scalar
p40
(cnumpy
dtype
p41
(S'f8'
I0
I1
tRp42
(I3
S'<'
NNNI-1
I-1
I0
tbS'\x00\x00\x00\x00\x00\x00\x00\x00'
tRp43
sS'test_additional_data'
p44
ccollections
defaultdict
p45
(c__builtin__
str
p46
tRp47
sS'test_duration'
p48
Fnan
sS'instance_results'
p49
cnumpy.core.multiarray
_reconstruct
p50
(cnumpy
ndarray
p51
(I0
tS'b'
tRp52
(I1
(I1
tg41
(S'f8'
I0
I1
tRp53
(I3
S'<'
NNNI-1
I-1
I0
tbI00
S'\x00\x00\x00\x00\x00\x00\x00\x00'
tbsS'test_std'
p54
Fnan
sS'additional_data'
p55
g45
(g46
tRp56
I0
S'No result string returned. Please have a look at the runinstance output'
p57
ssS'test_instance_durations'
p58
g50
(g51
(I0
tS'b'
tRp59
(I1
(I1
tg53
I00
S'\x00\x00\x00\x00\x00\x00\xf8\x7f'
tbsS'params'
p60
ccollections
OrderedDict
p61
((lp62
(lp63
S'C'
aS'17.0'
p64
aa(lp65
S'Sigma'
p66
aS'5.42128606113'
p67
aatRp68
sS'result'
p69
g40
(g42
S'\x00\x00\x00\x00\x00\x00\x00\x00'
tRp70
sS'test_instance_status'
p71
g50
(g51
(I0
tS'b'
tRp72
(I1
(I1
tg41
(S'i8'
I0
I1
tRp73
(I3
S'<'
NNNI-1
I-1
I0
tbI00
S'\x00\x00\x00\x00\x00\x00\x00\x00'
tbsS'duration'
p74
g40
(g42
S'U/\xbf\xd3d\xc6\xc9?'
tRp75
sS'test_status'
p76
I0
sS'test_result'
p77
Fnan
sS'test_instance_results'
p78
g50
(g51
(I0
tS'b'
tRp79
(I1
(I1
tg53
I00
S'\x00\x00\x00\x00\x00\x00\xf8\x7f'
tbsS'instance_status'
p80
g50
(g51
(I0
tS'b'
tRp81
(I1
(I1
tg73
I00
S'\xff\xff\xff\xff\xff\xff\xff\xff'
tbsS'instance_durations'
p82
g50
(g51
(I0
tS'b'
tRp83
(I1
(I1
tg53
I00
S'U/\xbf\xd3d\xc6\xc9?'
tbsa(dp84
S'status'
p85
I-1
sS'std'
p86
g40
(g42
S'\x00\x00\x00\x00\x00\x00\x00\x00'
tRp87
sS'test_additional_data'
p88
g45
(g46
tRp89
sS'test_duration'
p90
Fnan
sS'instance_results'
p91
g50
(g51
(I0
tS'b'
tRp92
(I1
(I1
tg41
(S'f8'
I0
I1
tRp93
(I3
S'<'
NNNI-1
I-1
I0
tbI00
S'\x00\x00\x00\x00\x00\x00\x00\x00'
tbsS'test_std'
p94
Fnan
sS'additional_data'
p95
g45
(g46
tRp96
I0
S'No result string returned. Please have a look at the runinstance output'
p97
ssS'test_instance_durations'
p98
g50
(g51
(I0
tS'b'
tRp99
(I1
(I1
tg93
I00
S'\x00\x00\x00\x00\x00\x00\xf8\x7f'
tbsS'params'
p100
g61
((lp101
(lp102
S'C'
aS'1.0'
p103
aa(lp104
S'Sigma'
p105
aS'5.66793372785'
p106
aatRp107
sS'result'
p108
g40
(g42
S'\x00\x00\x00\x00\x00\x00\x00\x00'
tRp109
sS'test_instance_status'
p110
g50
(g51
(I0
tS'b'
tRp111
(I1
(I1
tg41
(S'i8'
I0
I1
tRp112
(I3
S'<'
NNNI-1
I-1
I0
tbI00
S'\x00\x00\x00\x00\x00\x00\x00\x00'
tbsS'duration'
p113
g40
(g42
S'\xe7\x1afh<\x11\xc8?'
tRp114
sS'test_status'
p115
I0
sS'test_result'
p116
Fnan
sS'test_instance_results'
p117
g50
(g51
(I0
tS'b'
tRp118
(I1
(I1
tg93
I00
S'\x00\x00\x00\x00\x00\x00\xf8\x7f'
tbsS'instance_status'
p119
g50
(g51
(I0
tS'b'
tRp120
(I1
(I1
tg112
I00
S'\xff\xff\xff\xff\xff\xff\xff\xff'
tbsS'instance_durations'
p121
g50
(g51
(I0
tS'b'
tRp122
(I1
(I1
tg93
I00
S'\xe7\x1afh<\x11\xc8?'
tbsa(dp123
S'status'
p124
I-1
sS'std'
p125
g40
(g42
S'\x00\x00\x00\x00\x00\x00\x00\x00'
tRp126
sS'test_additional_data'
p127
g45
(g46
tRp128
sS'test_duration'
p129
Fnan
sS'instance_results'
p130
g50
(g51
(I0
tS'b'
tRp131
(I1
(I1
tg41
(S'f8'
I0
I1
tRp132
(I3
S'<'
NNNI-1
I-1
I0
tbI00
S'\x00\x00\x00\x00\x00\x00\x00\x00'
tbsS'test_std'
p133
Fnan
sS'additional_data'
p134
g45
(g46
tRp135
I0
S'No result string returned. Please have a look at the runinstance output'
p136
ssS'test_instance_durations'
p137
g50
(g51
(I0
tS'b'
tRp138
(I1
(I1
tg132
I00
S'\x00\x00\x00\x00\x00\x00\xf8\x7f'
tbsS'params'
p139
g61
((lp140
(lp141
S'C'
aS'17.0'
p142
aa(lp143
S'Sigma'
p144
aS'7.16037273347'
p145
aatRp146
sS'result'
p147
g40
(g42
S'\x00\x00\x00\x00\x00\x00\x00\x00'
tRp148
sS'test_instance_status'
p149
g50
(g51
(I0
tS'b'
tRp150
(I1
(I1
tg41
(S'i8'
I0
I1
tRp151
(I3
S'<'
NNNI-1
I-1
I0
tbI00
S'\x00\x00\x00\x00\x00\x00\x00\x00'
tbsS'duration'
p152
g40
(g42
S'\x96vj.7\x18\xca?'
tRp153
sS'test_status'
p154
I0
sS'test_result'
p155
Fnan
sS'test_instance_results'
p156
g50
(g51
(I0
tS'b'
tRp157
(I1
(I1
tg132
I00
S'\x00\x00\x00\x00\x00\x00\xf8\x7f'
tbsS'instance_status'
p158
g50
(g51
(I0
tS'b'
tRp159
(I1
(I1
tg151
I00
S'\xff\xff\xff\xff\xff\xff\xff\xff'
tbsS'instance_durations'
p160
g50
(g51
(I0
tS'b'
tRp161
(I1
(I1
tg132
I00
S'\x96vj.7\x18\xca?'
tbsa(dp162
S'status'
p163
I-1
sS'std'
p164
g40
(g42
S'\x00\x00\x00\x00\x00\x00\x00\x00'
tRp165
sS'test_additional_data'
p166
g45
(g46
tRp167
sS'test_duration'
p168
Fnan
sS'instance_results'
p169
g50
(g51
(I0
tS'b'
tRp170
(I1
(I1
tg41
(S'f8'
I0
I1
tRp171
(I3
S'<'
NNNI-1
I-1
I0
tbI00
S'\x00\x00\x00\x00\x00\x00\x00\x00'
tbsS'test_std'
p172
Fnan
sS'additional_data'
p173
g45
(g46
tRp174
I0
S'No result string returned. Please have a look at the runinstance output'
p175
ssS'test_instance_durations'
p176
g50
(g51
(I0
tS'b'
tRp177
(I1
(I1
tg171
I00
S'\x00\x00\x00\x00\x00\x00\xf8\x7f'
tbsS'params'
p178
g61
((lp179
(lp180
S'C'
aS'13.0'
p181
aa(lp182
S'Sigma'
p183
aS'12.5713879072'
p184
aatRp185
sS'result'
p186
g40
(g42
S'\x00\x00\x00\x00\x00\x00\x00\x00'
tRp187
sS'test_instance_status'
p188
g50
(g51
(I0
tS'b'
tRp189
(I1
(I1
tg41
(S'i8'
I0
I1
tRp190
(I3
S'<'
NNNI-1
I-1
I0
tbI00
S'\x00\x00\x00\x00\x00\x00\x00\x00'
tbsS'duration'
p191
g40
(g42
S'\xb6\xd8\xed\xb3\xcaL\xc7?'
tRp192
sS'test_status'
p193
I0
sS'test_result'
p194
Fnan
sS'test_instance_results'
p195
g50
(g51
(I0
tS'b'
tRp196
(I1
(I1
tg171
I00
S'\x00\x00\x00\x00\x00\x00\xf8\x7f'
tbsS'instance_status'
p197
g50
(g51
(I0
tS'b'
tRp198
(I1
(I1
tg190
I00
S'\xff\xff\xff\xff\xff\xff\xff\xff'
tbsS'instance_durations'
p199
g50
(g51
(I0
tS'b'
tRp200
(I1
(I1
tg171
I00
S'\xb6\xd8\xed\xb3\xcaL\xc7?'
tbsa(dp201
S'status'
p202
I-1
sS'std'
p203
g40
(g42
S'\x00\x00\x00\x00\x00\x00\x00\x00'
tRp204
sS'test_additional_data'
p205
g45
(g46
tRp206
sS'test_duration'
p207
Fnan
sS'instance_results'
p208
g50
(g51
(I0
tS'b'
tRp209
(I1
(I1
tg41
(S'f8'
I0
I1
tRp210
(I3
S'<'
NNNI-1
I-1
I0
tbI00
S'\x00\x00\x00\x00\x00\x00\x00\x00'
tbsS'test_std'
p211
Fnan
sS'additional_data'
p212
g45
(g46
tRp213
I0
S'No result string returned. Please have a look at the runinstance output'
p214
ssS'test_instance_durations'
p215
g50
(g51
(I0
tS'b'
tRp216
(I1
(I1
tg210
I00
S'\x00\x00\x00\x00\x00\x00\xf8\x7f'
tbsS'params'
p217
g61
((lp218
(lp219
S'C'
aS'21.0'
p220
aa(lp221
S'Sigma'
p222
aS'2.88591122417'
p223
aatRp224
sS'result'
p225
g40
(g42
S'\x00\x00\x00\x00\x00\x00\x00\x00'
tRp226
sS'test_instance_status'
p227
g50
(g51
(I0
tS'b'
tRp228
(I1
(I1
tg41
(S'i8'
I0
I1
tRp229
(I3
S'<'
NNNI-1
I-1
I0
tbI00
S'\x00\x00\x00\x00\x00\x00\x00\x00'
tbsS'duration'
p230
g40
(g42
S'\xb3\x99CR\x0b%\xc7?'
tRp231
sS'test_status'
p232
I0
sS'test_result'
p233
Fnan
sS'test_instance_results'
p234
g50
(g51
(I0
tS'b'
tRp235
(I1
(I1
tg210
I00
S'\x00\x00\x00\x00\x00\x00\xf8\x7f'
tbsS'instance_status'
p236
g50
(g51
(I0
tS'b'
tRp237
(I1
(I1
tg229
I00
S'\xff\xff\xff\xff\xff\xff\xff\xff'
tbsS'instance_durations'
p238
g50
(g51
(I0
tS'b'
tRp239
(I1
(I1
tg210
I00
S'\xb3\x99CR\x0b%\xc7?'
tbsa(dp240
S'status'
p241
I-1
sS'std'
p242
g40
(g42
S'\x00\x00\x00\x00\x00\x00\x00\x00'
tRp243
sS'test_additional_data'
p244
g45
(g46
tRp245
sS'test_duration'
p246
Fnan
sS'instance_results'
p247
g50
(g51
(I0
tS'b'
tRp248
(I1
(I1
tg41
(S'f8'
I0
I1
tRp249
(I3
S'<'
NNNI-1
I-1
I0
tbI00
S'\x00\x00\x00\x00\x00\x00\x00\x00'
tbsS'test_std'
p250
Fnan
sS'additional_data'
p251
g45
(g46
tRp252
I0
S'No result string returned. Please have a look at the runinstance output'
p253
ssS'test_instance_durations'
p254
g50
(g51
(I0
tS'b'
tRp255
(I1
(I1
tg249
I00
S'\x00\x00\x00\x00\x00\x00\xf8\x7f'
tbsS'params'
p256
g61
((lp257
(lp258
S'C'
aS'8.0'
p259
aa(lp260
S'Sigma'
p261
aS'11.6071819687'
p262
aatRp263
sS'result'
p264
g40
(g42
S'\x00\x00\x00\x00\x00\x00\x00\x00'
tRp265
sS'test_instance_status'
p266
g50
(g51
(I0
tS'b'
tRp267
(I1
(I1
tg41
(S'i8'
I0
I1
tRp268
(I3
S'<'
NNNI-1
I-1
I0
tbI00
S'\x00\x00\x00\x00\x00\x00\x00\x00'
tbsS'duration'
p269
g40
(g42
S'\x93\x005\xb5l\xad\xc7?'
tRp270
sS'test_status'
p271
I0
sS'test_result'
p272
Fnan
sS'test_instance_results'
p273
g50
(g51
(I0
tS'b'
tRp274
(I1
(I1
tg249
I00
S'\x00\x00\x00\x00\x00\x00\xf8\x7f'
tbsS'instance_status'
p275
g50
(g51
(I0
tS'b'
tRp276
(I1
(I1
tg268
I00
S'\xff\xff\xff\xff\xff\xff\xff\xff'
tbsS'instance_durations'
p277
g50
(g51
(I0
tS'b'
tRp278
(I1
(I1
tg249
I00
S'\x93\x005\xb5l\xad\xc7?'
tbsa(dp279
S'status'
p280
I-1
sS'std'
p281
g40
(g42
S'\x00\x00\x00\x00\x00\x00\x00\x00'
tRp282
sS'test_additional_data'
p283
g45
(g46
tRp284
sS'test_duration'
p285
Fnan
sS'instance_results'
p286
g50
(g51
(I0
tS'b'
tRp287
(I1
(I1
tg41
(S'f8'
I0
I1
tRp288
(I3
S'<'
NNNI-1
I-1
I0
tbI00
S'\x00\x00\x00\x00\x00\x00\x00\x00'
tbsS'test_std'
p289
Fnan
sS'additional_data'
p290
g45
(g46
tRp291
I0
S'No result string returned. Please have a look at the runinstance output'
p292
ssS'test_instance_durations'
p293
g50
(g51
(I0
tS'b'
tRp294
(I1
(I1
tg288
I00
S'\x00\x00\x00\x00\x00\x00\xf8\x7f'
tbsS'params'
p295
g61
((lp296
(lp297
S'C'
aS'19.0'
p298
aa(lp299
S'Sigma'
p300
aS'0.992007761861'
p301
aatRp302
sS'result'
p303
g40
(g42
S'\x00\x00\x00\x00\x00\x00\x00\x00'
tRp304
sS'test_instance_status'
p305
g50
(g51
(I0
tS'b'
tRp306
(I1
(I1
tg41
(S'i8'
I0
I1
tRp307
(I3
S'<'
NNNI-1
I-1
I0
tbI00
S'\x00\x00\x00\x00\x00\x00\x00\x00'
tbsS'duration'
p308
g40
(g42
S'\x8c\x9f\xc6\xbd\xf9\r\xc7?'
tRp309
sS'test_status'
p310
I0
sS'test_result'
p311
Fnan
sS'test_instance_results'
p312
g50
(g51
(I0
tS'b'
tRp313
(I1
(I1
tg288
I00
S'\x00\x00\x00\x00\x00\x00\xf8\x7f'
tbsS'instance_status'
p314
g50
(g51
(I0
tS'b'
tRp315
(I1
(I1
tg307
I00
S'\xff\xff\xff\xff\xff\xff\xff\xff'
tbsS'instance_durations'
p316
g50
(g51
(I0
tS'b'
tRp317
(I1
(I1
tg288
I00
S'\x8c\x9f\xc6\xbd\xf9\r\xc7?'
tbsa(dp318
S'status'
p319
I-1
sS'std'
p320
g40
(g42
S'\x00\x00\x00\x00\x00\x00\x00\x00'
tRp321
sS'test_additional_data'
p322
g45
(g46
tRp323
sS'test_duration'
p324
Fnan
sS'instance_results'
p325
g50
(g51
(I0
tS'b'
tRp326
(I1
(I1
tg41
(S'f8'
I0
I1
tRp327
(I3
S'<'
NNNI-1
I-1
I0
tbI00
S'\x00\x00\x00\x00\x00\x00\x00\x00'
tbsS'test_std'
p328
Fnan
sS'additional_data'
p329
g45
(g46
tRp330
I0
S'No result string returned. Please have a look at the runinstance output'
p331
ssS'test_instance_durations'
p332
g50
(g51
(I0
tS'b'
tRp333
(I1
(I1
tg327
I00
S'\x00\x00\x00\x00\x00\x00\xf8\x7f'
tbsS'params'
p334
g61
((lp335
(lp336
S'C'
aS'23.0'
p337
aa(lp338
S'Sigma'
p339
aS'11.3545822363'
p340
aatRp341
sS'result'
p342
g40
(g42
S'\x00\x00\x00\x00\x00\x00\x00\x00'
tRp343
sS'test_instance_status'
p344
g50
(g51
(I0
tS'b'
tRp345
(I1
(I1
tg41
(S'i8'
I0
I1
tRp346
(I3
S'<'
NNNI-1
I-1
I0
tbI00
S'\x00\x00\x00\x00\x00\x00\x00\x00'
tbsS'duration'
p347
g40
(g42
S'_\\\xaa\xd2\x16\xd7\xc6?'
tRp348
sS'test_status'
p349
I0
sS'test_result'
p350
Fnan
sS'test_instance_results'
p351
g50
(g51
(I0
tS'b'
tRp352
(I1
(I1
tg327
I00
S'\x00\x00\x00\x00\x00\x00\xf8\x7f'
tbsS'instance_status'
p353
g50
(g51
(I0
tS'b'
tRp354
(I1
(I1
tg346
I00
S'\xff\xff\xff\xff\xff\xff\xff\xff'
tbsS'instance_durations'
p355
g50
(g51
(I0
tS'b'
tRp356
(I1
(I1
tg327
I00
S'_\\\xaa\xd2\x16\xd7\xc6?'
tbsa(dp357
S'status'
p358
I-1
sS'std'
p359
g40
(g42
S'\x00\x00\x00\x00\x00\x00\x00\x00'
tRp360
sS'test_additional_data'
p361
g45
(g46
tRp362
sS'test_duration'
p363
Fnan
sS'instance_results'
p364
g50
(g51
(I0
tS'b'
tRp365
(I1
(I1
tg41
(S'f8'
I0
I1
tRp366
(I3
S'<'
NNNI-1
I-1
I0
tbI00
S'\x00\x00\x00\x00\x00\x00\x00\x00'
tbsS'test_std'
p367
Fnan
sS'additional_data'
p368
g45
(g46
tRp369
I0
S'No result string returned. Please have a look at the runinstance output'
p370
ssS'test_instance_durations'
p371
g50
(g51
(I0
tS'b'
tRp372
(I1
(I1
tg366
I00
S'\x00\x00\x00\x00\x00\x00\xf8\x7f'
tbsS'params'
p373
g61
((lp374
(lp375
S'C'
aS'12.0'
p376
aa(lp377
S'Sigma'
p378
aS'0.134864000514'
p379
aatRp380
sS'result'
p381
g40
(g42
S'\x00\x00\x00\x00\x00\x00\x00\x00'
tRp382
sS'test_instance_status'
p383
g50
(g51
(I0
tS'b'
tRp384
(I1
(I1
tg41
(S'i8'
I0
I1
tRp385
(I3
S'<'
NNNI-1
I-1
I0
tbI00
S'\x00\x00\x00\x00\x00\x00\x00\x00'
tbsS'duration'
p386
g40
(g42
S'\xdd\x0c7\xe0\xf3\xc3\xc6?'
tRp387
sS'test_status'
p388
I0
sS'test_result'
p389
Fnan
sS'test_instance_results'
p390
g50
(g51
(I0
tS'b'
tRp391
(I1
(I1
tg366
I00
S'\x00\x00\x00\x00\x00\x00\xf8\x7f'
tbsS'instance_status'
p392
g50
(g51
(I0
tS'b'
tRp393
(I1
(I1
tg385
I00
S'\xff\xff\xff\xff\xff\xff\xff\xff'
tbsS'instance_durations'
p394
g50
(g51
(I0
tS'b'
tRp395
(I1
(I1
tg366
I00
S'\xdd\x0c7\xe0\xf3\xc3\xc6?'
tbsa(dp396
S'status'
p397
I-1
sS'std'
p398
g40
(g42
S'\x00\x00\x00\x00\x00\x00\x00\x00'
tRp399
sS'test_additional_data'
p400
g45
(g46
tRp401
sS'test_duration'
p402
Fnan
sS'instance_results'
p403
g50
(g51
(I0
tS'b'
tRp404
(I1
(I1
tg41
(S'f8'
I0
I1
tRp405
(I3
S'<'
NNNI-1
I-1
I0
tbI00
S'\x00\x00\x00\x00\x00\x00\x00\x00'
tbsS'test_std'
p406
Fnan
sS'additional_data'
p407
g45
(g46
tRp408
I0
S'No result string returned. Please have a look at the runinstance output'
p409
ssS'test_instance_durations'
p410
g50
(g51
(I0
tS'b'
tRp411
(I1
(I1
tg405
I00
S'\x00\x00\x00\x00\x00\x00\xf8\x7f'
tbsS'params'
p412
g61
((lp413
(lp414
S'C'
aS'0.0'
p415
aa(lp416
S'Sigma'
p417
aS'10.0271683625'
p418
aatRp419
sS'result'
p420
g40
(g42
S'\x00\x00\x00\x00\x00\x00\x00\x00'
tRp421
sS'test_instance_status'
p422
g50
(g51
(I0
tS'b'
tRp423
(I1
(I1
tg41
(S'i8'
I0
I1
tRp424
(I3
S'<'
NNNI-1
I-1
I0
tbI00
S'\x00\x00\x00\x00\x00\x00\x00\x00'
tbsS'duration'
p425
g40
(g42
S'\xc3~O\xacS\xe5\xc7?'
tRp426
sS'test_status'
p427
I0
sS'test_result'
p428
Fnan
sS'test_instance_results'
p429
g50
(g51
(I0
tS'b'
tRp430
(I1
(I1
tg405
I00
S'\x00\x00\x00\x00\x00\x00\xf8\x7f'
tbsS'instance_status'
p431
g50
(g51
(I0
tS'b'
tRp432
(I1
(I1
tg424
I00
S'\xff\xff\xff\xff\xff\xff\xff\xff'
tbsS'instance_durations'
p433
g50
(g51
(I0
tS'b'
tRp434
(I1
(I1
tg405
I00
S'\xc3~O\xacS\xe5\xc7?'
tbsa(dp435
S'status'
p436
I-1
sS'std'
p437
g40
(g42
S'\x00\x00\x00\x00\x00\x00\x00\x00'
tRp438
sS'test_additional_data'
p439
g45
(g46
tRp440
sS'test_duration'
p441
Fnan
sS'instance_results'
p442
g50
(g51
(I0
tS'b'
tRp443
(I1
(I1
tg41
(S'f8'
I0
I1
tRp444
(I3
S'<'
NNNI-1
I-1
I0
tbI00
S'\x00\x00\x00\x00\x00\x00\x00\x00'
tbsS'test_std'
p445
Fnan
sS'additional_data'
p446
g45
(g46
tRp447
I0
S'No result string returned. Please have a look at the runinstance output'
p448
ssS'test_instance_durations'
p449
g50
(g51
(I0
tS'b'
tRp450
(I1
(I1
tg444
I00
S'\x00\x00\x00\x00\x00\x00\xf8\x7f'
tbsS'params'
p451
g61
((lp452
(lp453
S'C'
aS'0.0'
p454
aa(lp455
S'Sigma'
p456
aS'2.3435059554'
p457
aatRp458
sS'result'
p459
g40
(g42
S'\x00\x00\x00\x00\x00\x00\x00\x00'
tRp460
sS'test_instance_status'
p461
g50
(g51
(I0
tS'b'
tRp462
(I1
(I1
tg41
(S'i8'
I0
I1
tRp463
(I3
S'<'
NNNI-1
I-1
I0
tbI00
S'\x00\x00\x00\x00\x00\x00\x00\x00'
tbsS'duration'
p464
g40
(g42
S'\x7f0\xf0\xdc{\xb8\xc6?'
tRp465
sS'test_status'
p466
I0
sS'test_result'
p467
Fnan
sS'test_instance_results'
p468
g50
(g51
(I0
tS'b'
tRp469
(I1
(I1
tg444
I00
S'\x00\x00\x00\x00\x00\x00\xf8\x7f'
tbsS'instance_status'
p470
g50
(g51
(I0
tS'b'
tRp471
(I1
(I1
tg463
I00
S'\xff\xff\xff\xff\xff\xff\xff\xff'
tbsS'instance_durations'
p472
g50
(g51
(I0
tS'b'
tRp473
(I1
(I1
tg444
I00
S'\x7f0\xf0\xdc{\xb8\xc6?'
tbsa(dp474
S'status'
p475
I-1
sS'std'
p476
g40
(g42
S'\x00\x00\x00\x00\x00\x00\x00\x00'
tRp477
sS'test_additional_data'
p478
g45
(g46
tRp479
sS'test_duration'
p480
Fnan
sS'instance_results'
p481
g50
(g51
(I0
tS'b'
tRp482
(I1
(I1
tg41
(S'f8'
I0
I1
tRp483
(I3
S'<'
NNNI-1
I-1
I0
tbI00
S'\x00\x00\x00\x00\x00\x00\x00\x00'
tbsS'test_std'
p484
Fnan
sS'additional_data'
p485
g45
(g46
tRp486
I0
S'No result string returned. Please have a look at the runinstance output'
p487
ssS'test_instance_durations'
p488
g50
(g51
(I0
tS'b'
tRp489
(I1
(I1
tg483
I00
S'\x00\x00\x00\x00\x00\x00\xf8\x7f'
tbsS'params'
p490
g61
((lp491
(lp492
S'C'
aS'18.0'
p493
aa(lp494
S'Sigma'
p495
aS'2.00411695094'
p496
aatRp497
sS'result'
p498
g40
(g42
S'\x00\x00\x00\x00\x00\x00\x00\x00'
tRp499
sS'test_instance_status'
p500
g50
(g51
(I0
tS'b'
tRp501
(I1
(I1
tg41
(S'i8'
I0
I1
tRp502
(I3
S'<'
NNNI-1
I-1
I0
tbI00
S'\x00\x00\x00\x00\x00\x00\x00\x00'
tbsS'duration'
p503
g40
(g42
S'\x9a\\\x8c\x81u\x1c\xc7?'
tRp504
sS'test_status'
p505
I0
sS'test_result'
p506
Fnan
sS'test_instance_results'
p507
g50
(g51
(I0
tS'b'
tRp508
(I1
(I1
tg483
I00
S'\x00\x00\x00\x00\x00\x00\xf8\x7f'
tbsS'instance_status'
p509
g50
(g51
(I0
tS'b'
tRp510
(I1
(I1
tg502
I00
S'\xff\xff\xff\xff\xff\xff\xff\xff'
tbsS'instance_durations'
p511
g50
(g51
(I0
tS'b'
tRp512
(I1
(I1
tg483
I00
S'\x9a\\\x8c\x81u\x1c\xc7?'
tbsa(dp513
S'status'
p514
I-1
sS'std'
p515
g40
(g42
S'\x00\x00\x00\x00\x00\x00\x00\x00'
tRp516
sS'test_additional_data'
p517
g45
(g46
tRp518
sS'test_duration'
p519
Fnan
sS'instance_results'
p520
g50
(g51
(I0
tS'b'
tRp521
(I1
(I1
tg41
(S'f8'
I0
I1
tRp522
(I3
S'<'
NNNI-1
I-1
I0
tbI00
S'\x00\x00\x00\x00\x00\x00\x00\x00'
tbsS'test_std'
p523
Fnan
sS'additional_data'
p524
g45
(g46
tRp525
I0
S'No result string returned. Please have a look at the runinstance output'
p526
ssS'test_instance_durations'
p527
g50
(g51
(I0
tS'b'
tRp528
(I1
(I1
tg522
I00
S'\x00\x00\x00\x00\x00\x00\xf8\x7f'
tbsS'params'
p529
g61
((lp530
(lp531
S'C'
aS'6.0'
p532
aa(lp533
S'Sigma'
p534
aS'10.1101313375'
p535
aatRp536
sS'result'
p537
g40
(g42
S'\x00\x00\x00\x00\x00\x00\x00\x00'
tRp538
sS'test_instance_status'
p539
g50
(g51
(I0
tS'b'
tRp540
(I1
(I1
tg41
(S'i8'
I0
I1
tRp541
(I3
S'<'
NNNI-1
I-1
I0
tbI00
S'\x00\x00\x00\x00\x00\x00\x00\x00'
tbsS'duration'
p542
g40
(g42
S'\xbd\xaa\xb3Z`\x8f\xc7?'
tRp543
sS'test_status'
p544
I0
sS'test_result'
p545
Fnan
sS'test_instance_results'
p546
g50
(g51
(I0
tS'b'
tRp547
(I1
(I1
tg522
I00
S'\x00\x00\x00\x00\x00\x00\xf8\x7f'
tbsS'instance_status'
p548
g50
(g51
(I0
tS'b'
tRp549
(I1
(I1
tg541
I00
S'\xff\xff\xff\xff\xff\xff\xff\xff'
tbsS'instance_durations'
p550
g50
(g51
(I0
tS'b'
tRp551
(I1
(I1
tg522
I00
S'\xbd\xaa\xb3Z`\x8f\xc7?'
tbsa(dp552
S'status'
p553
I-1
sS'std'
p554
g40
(g42
S'\x00\x00\x00\x00\x00\x00\x00\x00'
tRp555
sS'test_additional_data'
p556
g45
(g46
tRp557
sS'test_duration'
p558
Fnan
sS'instance_results'
p559
g50
(g51
(I0
tS'b'
tRp560
(I1
(I1
tg41
(S'f8'
I0
I1
tRp561
(I3
S'<'
NNNI-1
I-1
I0
tbI00
S'\x00\x00\x00\x00\x00\x00\x00\x00'
tbsS'test_std'
p562
Fnan
sS'additional_data'
p563
g45
(g46
tRp564
I0
S'No result string returned. Please have a look at the runinstance output'
p565
ssS'test_instance_durations'
p566
g50
(g51
(I0
tS'b'
tRp567
(I1
(I1
tg561
I00
S'\x00\x00\x00\x00\x00\x00\xf8\x7f'
tbsS'params'
p568
g61
((lp569
(lp570
S'C'
aS'19.0'
p571
aa(lp572
S'Sigma'
p573
aS'6.68126346904'
p574
aatRp575
sS'result'
p576
g40
(g42
S'\x00\x00\x00\x00\x00\x00\x00\x00'
tRp577
sS'test_instance_status'
p578
g50
(g51
(I0
tS'b'
tRp579
(I1
(I1
tg41
(S'i8'
I0
I1
tRp580
(I3
S'<'
NNNI-1
I-1
I0
tbI00
S'\x00\x00\x00\x00\x00\x00\x00\x00'
tbsS'duration'
p581
g40
(g42
S'\xabu\xe2r\xbc\x02\xc7?'
tRp582
sS'test_status'
p583
I0
sS'test_result'
p584
Fnan
sS'test_instance_results'
p585
g50
(g51
(I0
tS'b'
tRp586
(I1
(I1
tg561
I00
S'\x00\x00\x00\x00\x00\x00\xf8\x7f'
tbsS'instance_status'
p587
g50
(g51
(I0
tS'b'
tRp588
(I1
(I1
tg580
I00
S'\xff\xff\xff\xff\xff\xff\xff\xff'
tbsS'instance_durations'
p589
g50
(g51
(I0
tS'b'
tRp590
(I1
(I1
tg561
I00
S'\xabu\xe2r\xbc\x02\xc7?'
tbsa(dp591
S'status'
p592
I-1
sS'std'
p593
g40
(g42
S'\x00\x00\x00\x00\x00\x00\x00\x00'
tRp594
sS'test_additional_data'
p595
g45
(g46
tRp596
sS'test_duration'
p597
Fnan
sS'instance_results'
p598
g50
(g51
(I0
tS'b'
tRp599
(I1
(I1
tg41
(S'f8'
I0
I1
tRp600
(I3
S'<'
NNNI-1
I-1
I0
tbI00
S'\x00\x00\x00\x00\x00\x00\x00\x00'
tbsS'test_std'
p601
Fnan
sS'additional_data'
p602
g45
(g46
tRp603
I0
S'No result string returned. Please have a look at the runinstance output'
p604
ssS'test_instance_durations'
p605
g50
(g51
(I0
tS'b'
tRp606
(I1
(I1
tg600
I00
S'\x00\x00\x00\x00\x00\x00\xf8\x7f'
tbsS'params'
p607
g61
((lp608
(lp609
S'C'
aS'4.0'
p610
aa(lp611
S'Sigma'
p612
aS'11.0346300645'
p613
aatRp614
sS'result'
p615
g40
(g42
S'\x00\x00\x00\x00\x00\x00\x00\x00'
tRp616
sS'test_instance_status'
p617
g50
(g51
(I0
tS'b'
tRp618
(I1
(I1
tg41
(S'i8'
I0
I1
tRp619
(I3
S'<'
NNNI-1
I-1
I0
tbI00
S'\x00\x00\x00\x00\x00\x00\x00\x00'
tbsS'duration'
p620
g40
(g42
S'\x01i\xff\x03\xacU\xc7?'
tRp621
sS'test_status'
p622
I0
sS'test_result'
p623
Fnan
sS'test_instance_results'
p624
g50
(g51
(I0
tS'b'
tRp625
(I1
(I1
tg600
I00
S'\x00\x00\x00\x00\x00\x00\xf8\x7f'
tbsS'instance_status'
p626
g50
(g51
(I0
tS'b'
tRp627
(I1
(I1
tg619
I00
S'\xff\xff\xff\xff\xff\xff\xff\xff'
tbsS'instance_durations'
p628
g50
(g51
(I0
tS'b'
tRp629
(I1
(I1
tg600
I00
S'\x01i\xff\x03\xacU\xc7?'
tbsa(dp630
S'status'
p631
I-1
sS'std'
p632
g40
(g42
S'\x00\x00\x00\x00\x00\x00\x00\x00'
tRp633
sS'test_additional_data'
p634
g45
(g46
tRp635
sS'test_duration'
p636
Fnan
sS'instance_results'
p637
g50
(g51
(I0
tS'b'
tRp638
(I1
(I1
tg41
(S'f8'
I0
I1
tRp639
(I3
S'<'
NNNI-1
I-1
I0
tbI00
S'\x00\x00\x00\x00\x00\x00\x00\x00'
tbsS'test_std'
p640
Fnan
sS'additional_data'
p641
g45
(g46
tRp642
I0
S'No result string returned. Please have a look at the runinstance output'
p643
ssS'test_instance_durations'
p644
g50
(g51
(I0
tS'b'
tRp645
(I1
(I1
tg639
I00
S'\x00\x00\x00\x00\x00\x00\xf8\x7f'
tbsS'params'
p646
g61
((lp647
(lp648
S'C'
aS'13.0'
p649
aa(lp650
S'Sigma'
p651
aS'2.902784029'
p652
aatRp653
sS'result'
p654
g40
(g42
S'\x00\x00\x00\x00\x00\x00\x00\x00'
tRp655
sS'test_instance_status'
p656
g50
(g51
(I0
tS'b'
tRp657
(I1
(I1
tg41
(S'i8'
I0
I1
tRp658
(I3
S'<'
NNNI-1
I-1
I0
tbI00
S'\x00\x00\x00\x00\x00\x00\x00\x00'
tbsS'duration'
p659
g40
(g42
S'A\xf2\xce\xa1\x0cU\xc7?'
tRp660
sS'test_status'
p661
I0
sS'test_result'
p662
Fnan
sS'test_instance_results'
p663
g50
(g51
(I0
tS'b'
tRp664
(I1
(I1
tg639
I00
S'\x00\x00\x00\x00\x00\x00\xf8\x7f'
tbsS'instance_status'
p665
g50
(g51
(I0
tS'b'
tRp666
(I1
(I1
tg658
I00
S'\xff\xff\xff\xff\xff\xff\xff\xff'
tbsS'instance_durations'
p667
g50
(g51
(I0
tS'b'
tRp668
(I1
(I1
tg639
I00
S'A\xf2\xce\xa1\x0cU\xc7?'
tbsa(dp669
S'status'
p670
I-1
sS'std'
p671
g40
(g42
S'\x00\x00\x00\x00\x00\x00\x00\x00'
tRp672
sS'test_additional_data'
p673
g45
(g46
tRp674
sS'test_duration'
p675
Fnan
sS'instance_results'
p676
g50
(g51
(I0
tS'b'
tRp677
(I1
(I1
tg41
(S'f8'
I0
I1
tRp678
(I3
S'<'
NNNI-1
I-1
I0
tbI00
S'\x00\x00\x00\x00\x00\x00\x00\x00'
tbsS'test_std'
p679
Fnan
sS'additional_data'
p680
g45
(g46
tRp681
I0
S'No result string returned. Please have a look at the runinstance output'
p682
ssS'test_instance_durations'
p683
g50
(g51
(I0
tS'b'
tRp684
(I1
(I1
tg678
I00
S'\x00\x00\x00\x00\x00\x00\xf8\x7f'
tbsS'params'
p685
g61
((lp686
(lp687
S'C'
aS'13.0'
p688
aa(lp689
S'Sigma'
p690
aS'3.83064503493'
p691
aatRp692
sS'result'
p693
g40
(g42
S'\x00\x00\x00\x00\x00\x00\x00\x00'
tRp694
sS'test_instance_status'
p695
g50
(g51
(I0
tS'b'
tRp696
(I1
(I1
tg41
(S'i8'
I0
I1
tRp697
(I3
S'<'
NNNI-1
I-1
I0
tbI00
S'\x00\x00\x00\x00\x00\x00\x00\x00'
tbsS'duration'
p698
g40
(g42
S'\x8d|^\xf1\xd4#\xc7?'
tRp699
sS'test_status'
p700
I0
sS'test_result'
p701
Fnan
sS'test_instance_results'
p702
g50
(g51
(I0
tS'b'
tRp703
(I1
(I1
tg678
I00
S'\x00\x00\x00\x00\x00\x00\xf8\x7f'
tbsS'instance_status'
p704
g50
(g51
(I0
tS'b'
tRp705
(I1
(I1
tg697
I00
S'\xff\xff\xff\xff\xff\xff\xff\xff'
tbsS'instance_durations'
p706
g50
(g51
(I0
tS'b'
tRp707
(I1
(I1
tg678
I00
S'\x8d|^\xf1\xd4#\xc7?'
tbsa(dp708
S'status'
p709
I-1
sS'std'
p710
g40
(g42
S'\x00\x00\x00\x00\x00\x00\x00\x00'
tRp711
sS'test_additional_data'
p712
g45
(g46
tRp713
sS'test_duration'
p714
Fnan
sS'instance_results'
p715
g50
(g51
(I0
tS'b'
tRp716
(I1
(I1
tg41
(S'f8'
I0
I1
tRp717
(I3
S'<'
NNNI-1
I-1
I0
tbI00
S'\x00\x00\x00\x00\x00\x00\x00\x00'
tbsS'test_std'
p718
Fnan
sS'additional_data'
p719
g45
(g46
tRp720
I0
S'No result string returned. Please have a look at the runinstance output'
p721
ssS'test_instance_durations'
p722
g50
(g51
(I0
tS'b'
tRp723
(I1
(I1
tg717
I00
S'\x00\x00\x00\x00\x00\x00\xf8\x7f'
tbsS'params'
p724
g61
((lp725
(lp726
S'C'
aS'12.0'
p727
aa(lp728
S'Sigma'
p729
aS'8.45486514261'
p730
aatRp731
sS'result'
p732
g40
(g42
S'\x00\x00\x00\x00\x00\x00\x00\x00'
tRp733
sS'test_instance_status'
p734
g50
(g51
(I0
tS'b'
tRp735
(I1
(I1
tg41
(S'i8'
I0
I1
tRp736
(I3
S'<'
NNNI-1
I-1
I0
tbI00
S'\x00\x00\x00\x00\x00\x00\x00\x00'
tbsS'duration'
p737
g40
(g42
S'\x0c\x1e\xa6}s\x7f\xc7?'
tRp738
sS'test_status'
p739
I0
sS'test_result'
p740
Fnan
sS'test_instance_results'
p741
g50
(g51
(I0
tS'b'
tRp742
(I1
(I1
tg717
I00
S'\x00\x00\x00\x00\x00\x00\xf8\x7f'
tbsS'instance_status'
p743
g50
(g51
(I0
tS'b'
tRp744
(I1
(I1
tg736
I00
S'\xff\xff\xff\xff\xff\xff\xff\xff'
tbsS'instance_durations'
p745
g50
(g51
(I0
tS'b'
tRp746
(I1
(I1
tg717
I00
S'\x0c\x1e\xa6}s\x7f\xc7?'
tbsasS'total_wallclock_time'
p747
F3.3150180000000007
sS'experiment_name'
p748
S'hyperopt_august2013_mod'
p749
sS'starttime'
p750
(lp751
F1481565199.266335
as.