(dp1
S'cv_endtime'
p2
(lp3
F1481560574.713423
aF1481560575.1966419
aF1481560575.6090391
aF1481560575.969465
aF1481560576.298116
aF1481560576.8080161
aF1481560577.2152181
aF1481560577.639833
aF1481560578.0482161
aF1481560578.4522679
aF1481560578.7682631
aF1481560579.141403
aF1481560579.509095
aF1481560579.9192951
aF1481560580.3264561
aF1481560580.757992
aF1481560581.1005599
aF1481560581.46264
aF1481560581.8635991
aF1481560582.2431569
aF1481560582.6493731
aF1481560582.9792211
aF1481560583.396148
aF1481560583.8650849
aF1481560584.285696
aF1481560584.7279921
aF1481560585.15747
aF1481560585.5693381
aF1481560586.0598431
aF1481560586.585089
aF1481560587.0497351
asS'folds'
p4
I1
sS'cv_starttime'
p5
(lp6
F1481560574.370892
aF1481560575.044188
aF1481560575.4550951
aF1481560575.835851
aF1481560576.193505
aF1481560576.538245
aF1481560577.048537
aF1481560577.463846
aF1481560577.861907
aF1481560578.2731881
aF1481560578.6773701
aF1481560578.9704499
aF1481560579.3818259
aF1481560579.726964
aF1481560580.1409609
aF1481560580.564101
aF1481560580.9856
aF1481560581.3072691
aF1481560581.7043159
aF1481560582.1057711
aF1481560582.493751
aF1481560582.869782
aF1481560583.2155881
aF1481560583.636735
aF1481560584.104527
aF1481560584.5204999
aF1481560584.9862039
aF1481560585.3898239
aF1481560585.8355031
aF1481560586.341754
aF1481560586.8315361
asS'endtime'
p7
(lp8
sS'optimizer'
p9
S'/home/elena/thesis_workspace/test_HPOlib/HPOlib/optimizers/tpe/hyperopt_august2013_mod'
p10
sS'optimizer_time'
p11
(lp12
sS'instance_order'
p13
(lp14
(I0
I0
tp15
a(I1
I0
tp16
a(I2
I0
tp17
a(I3
I0
tp18
a(I4
I0
tp19
a(I5
I0
tp20
a(I6
I0
tp21
a(I7
I0
tp22
a(I8
I0
tp23
a(I9
I0
tp24
a(I10
I0
tp25
a(I11
I0
tp26
a(I12
I0
tp27
a(I13
I0
tp28
a(I14
I0
tp29
a(I15
I0
tp30
a(I16
I0
tp31
a(I17
I0
tp32
a(I18
I0
tp33
a(I19
I0
tp34
a(I20
I0
tp35
a(I21
I0
tp36
a(I22
I0
tp37
a(I23
I0
tp38
a(I24
I0
tp39
a(I25
I0
tp40
a(I26
I0
tp41
a(I27
I0
tp42
a(I28
I0
tp43
a(I29
I0
tp44
a(I30
I0
tp45
asS'max_wallclock_time'
p46
S''
sS'title'
p47
NsS'trials'
p48
(lp49
(dp50
S'status'
p51
I-1
sS'std'
p52
cnumpy.core.multiarray
scalar
p53
(cnumpy
dtype
p54
(S'f8'
I0
I1
tRp55
(I3
S'<'
NNNI-1
I-1
I0
tbS'\x00\x00\x00\x00\x00\x00\x00\x00'
tRp56
sS'test_additional_data'
p57
ccollections
defaultdict
p58
(c__builtin__
str
p59
tRp60
sS'test_duration'
p61
Fnan
sS'instance_results'
p62
cnumpy.core.multiarray
_reconstruct
p63
(cnumpy
ndarray
p64
(I0
tS'b'
tRp65
(I1
(I1
tg54
(S'f8'
I0
I1
tRp66
(I3
S'<'
NNNI-1
I-1
I0
tbI00
S'\x00\x00\x00\x00\x00\x00\x00\x00'
tbsS'test_std'
p67
Fnan
sS'additional_data'
p68
g58
(g59
tRp69
I0
S'No result string returned. Please have a look at the runinstance output'
p70
ssS'test_instance_durations'
p71
g63
(g64
(I0
tS'b'
tRp72
(I1
(I1
tg66
I00
S'\x00\x00\x00\x00\x00\x00\xf8\x7f'
tbsS'params'
p73
ccollections
OrderedDict
p74
((lp75
(lp76
S'C'
aS'17.0'
p77
aa(lp78
S'Sigma'
p79
aS'5.42128606113'
p80
aatRp81
sS'result'
p82
g53
(g55
S'\x00\x00\x00\x00\x00\x00\x00\x00'
tRp83
sS'test_instance_status'
p84
g63
(g64
(I0
tS'b'
tRp85
(I1
(I1
tg54
(S'i8'
I0
I1
tRp86
(I3
S'<'
NNNI-1
I-1
I0
tbI00
S'\x00\x00\x00\x00\x00\x00\x00\x00'
tbsS'duration'
p87
g53
(g55
S'5c\xd1tv2\xb0?'
tRp88
sS'test_status'
p89
I0
sS'test_result'
p90
Fnan
sS'test_instance_results'
p91
g63
(g64
(I0
tS'b'
tRp92
(I1
(I1
tg66
I00
S'\x00\x00\x00\x00\x00\x00\xf8\x7f'
tbsS'instance_status'
p93
g63
(g64
(I0
tS'b'
tRp94
(I1
(I1
tg86
I00
S'\xff\xff\xff\xff\xff\xff\xff\xff'
tbsS'instance_durations'
p95
g63
(g64
(I0
tS'b'
tRp96
(I1
(I1
tg66
I00
S'5c\xd1tv2\xb0?'
tbsa(dp97
S'status'
p98
I-1
sS'std'
p99
g53
(g55
S'\x00\x00\x00\x00\x00\x00\x00\x00'
tRp100
sS'test_additional_data'
p101
g58
(g59
tRp102
sS'test_duration'
p103
Fnan
sS'instance_results'
p104
g63
(g64
(I0
tS'b'
tRp105
(I1
(I1
tg54
(S'f8'
I0
I1
tRp106
(I3
S'<'
NNNI-1
I-1
I0
tbI00
S'\x00\x00\x00\x00\x00\x00\x00\x00'
tbsS'test_std'
p107
Fnan
sS'additional_data'
p108
g58
(g59
tRp109
I0
S'No result string returned. Please have a look at the runinstance output'
p110
ssS'test_instance_durations'
p111
g63
(g64
(I0
tS'b'
tRp112
(I1
(I1
tg106
I00
S'\x00\x00\x00\x00\x00\x00\xf8\x7f'
tbsS'params'
p113
g74
((lp114
(lp115
S'C'
aS'1.0'
p116
aa(lp117
S'Sigma'
p118
aS'5.66793372785'
p119
aatRp120
sS'result'
p121
g53
(g55
S'\x00\x00\x00\x00\x00\x00\x00\x00'
tRp122
sS'test_instance_status'
p123
g63
(g64
(I0
tS'b'
tRp124
(I1
(I1
tg54
(S'i8'
I0
I1
tRp125
(I3
S'<'
NNNI-1
I-1
I0
tbI00
S'\x00\x00\x00\x00\x00\x00\x00\x00'
tbsS'duration'
p126
g53
(g55
S'\x02S\xbc\x80M\x8c\x93?'
tRp127
sS'test_status'
p128
I0
sS'test_result'
p129
Fnan
sS'test_instance_results'
p130
g63
(g64
(I0
tS'b'
tRp131
(I1
(I1
tg106
I00
S'\x00\x00\x00\x00\x00\x00\xf8\x7f'
tbsS'instance_status'
p132
g63
(g64
(I0
tS'b'
tRp133
(I1
(I1
tg125
I00
S'\xff\xff\xff\xff\xff\xff\xff\xff'
tbsS'instance_durations'
p134
g63
(g64
(I0
tS'b'
tRp135
(I1
(I1
tg106
I00
S'\x02S\xbc\x80M\x8c\x93?'
tbsa(dp136
S'status'
p137
I-1
sS'std'
p138
g53
(g55
S'\x00\x00\x00\x00\x00\x00\x00\x00'
tRp139
sS'test_additional_data'
p140
g58
(g59
tRp141
sS'test_duration'
p142
Fnan
sS'instance_results'
p143
g63
(g64
(I0
tS'b'
tRp144
(I1
(I1
tg54
(S'f8'
I0
I1
tRp145
(I3
S'<'
NNNI-1
I-1
I0
tbI00
S'\x00\x00\x00\x00\x00\x00\x00\x00'
tbsS'test_std'
p146
Fnan
sS'additional_data'
p147
g58
(g59
tRp148
I0
S'No result string returned. Please have a look at the runinstance output'
p149
ssS'test_instance_durations'
p150
g63
(g64
(I0
tS'b'
tRp151
(I1
(I1
tg145
I00
S'\x00\x00\x00\x00\x00\x00\xf8\x7f'
tbsS'params'
p152
g74
((lp153
(lp154
S'C'
aS'17.0'
p155
aa(lp156
S'Sigma'
p157
aS'7.16037273347'
p158
aatRp159
sS'result'
p160
g53
(g55
S'\x00\x00\x00\x00\x00\x00\x00\x00'
tRp161
sS'test_instance_status'
p162
g63
(g64
(I0
tS'b'
tRp163
(I1
(I1
tg54
(S'i8'
I0
I1
tRp164
(I3
S'<'
NNNI-1
I-1
I0
tbI00
S'\x00\x00\x00\x00\x00\x00\x00\x00'
tbsS'duration'
p165
g53
(g55
S'\xaa\xbaG6W\xcd\xa3?'
tRp166
sS'test_status'
p167
I0
sS'test_result'
p168
Fnan
sS'test_instance_results'
p169
g63
(g64
(I0
tS'b'
tRp170
(I1
(I1
tg145
I00
S'\x00\x00\x00\x00\x00\x00\xf8\x7f'
tbsS'instance_status'
p171
g63
(g64
(I0
tS'b'
tRp172
(I1
(I1
tg164
I00
S'\xff\xff\xff\xff\xff\xff\xff\xff'
tbsS'instance_durations'
p173
g63
(g64
(I0
tS'b'
tRp174
(I1
(I1
tg145
I00
S'\xaa\xbaG6W\xcd\xa3?'
tbsa(dp175
S'status'
p176
I-1
sS'std'
p177
g53
(g55
S'\x00\x00\x00\x00\x00\x00\x00\x00'
tRp178
sS'test_additional_data'
p179
g58
(g59
tRp180
sS'test_duration'
p181
Fnan
sS'instance_results'
p182
g63
(g64
(I0
tS'b'
tRp183
(I1
(I1
tg54
(S'f8'
I0
I1
tRp184
(I3
S'<'
NNNI-1
I-1
I0
tbI00
S'\x00\x00\x00\x00\x00\x00\x00\x00'
tbsS'test_std'
p185
Fnan
sS'additional_data'
p186
g58
(g59
tRp187
I0
S'No result string returned. Please have a look at the runinstance output'
p188
ssS'test_instance_durations'
p189
g63
(g64
(I0
tS'b'
tRp190
(I1
(I1
tg184
I00
S'\x00\x00\x00\x00\x00\x00\xf8\x7f'
tbsS'params'
p191
g74
((lp192
(lp193
S'C'
aS'13.0'
p194
aa(lp195
S'Sigma'
p196
aS'12.5713879072'
p197
aatRp198
sS'result'
p199
g53
(g55
S'\x00\x00\x00\x00\x00\x00\x00\x00'
tRp200
sS'test_instance_status'
p201
g63
(g64
(I0
tS'b'
tRp202
(I1
(I1
tg54
(S'i8'
I0
I1
tRp203
(I3
S'<'
NNNI-1
I-1
I0
tbI00
S'\x00\x00\x00\x00\x00\x00\x00\x00'
tbsS'duration'
p204
g53
(g55
S'\x93dg\x1b\xc9/\x95?'
tRp205
sS'test_status'
p206
I0
sS'test_result'
p207
Fnan
sS'test_instance_results'
p208
g63
(g64
(I0
tS'b'
tRp209
(I1
(I1
tg184
I00
S'\x00\x00\x00\x00\x00\x00\xf8\x7f'
tbsS'instance_status'
p210
g63
(g64
(I0
tS'b'
tRp211
(I1
(I1
tg203
I00
S'\xff\xff\xff\xff\xff\xff\xff\xff'
tbsS'instance_durations'
p212
g63
(g64
(I0
tS'b'
tRp213
(I1
(I1
tg184
I00
S'\x93dg\x1b\xc9/\x95?'
tbsa(dp214
S'status'
p215
I-1
sS'std'
p216
g53
(g55
S'\x00\x00\x00\x00\x00\x00\x00\x00'
tRp217
sS'test_additional_data'
p218
g58
(g59
tRp219
sS'test_duration'
p220
Fnan
sS'instance_results'
p221
g63
(g64
(I0
tS'b'
tRp222
(I1
(I1
tg54
(S'f8'
I0
I1
tRp223
(I3
S'<'
NNNI-1
I-1
I0
tbI00
S'\x00\x00\x00\x00\x00\x00\x00\x00'
tbsS'test_std'
p224
Fnan
sS'additional_data'
p225
g58
(g59
tRp226
I0
S'No result string returned. Please have a look at the runinstance output'
p227
ssS'test_instance_durations'
p228
g63
(g64
(I0
tS'b'
tRp229
(I1
(I1
tg223
I00
S'\x00\x00\x00\x00\x00\x00\xf8\x7f'
tbsS'params'
p230
g74
((lp231
(lp232
S'C'
aS'21.0'
p233
aa(lp234
S'Sigma'
p235
aS'2.88591122417'
p236
aatRp237
sS'result'
p238
g53
(g55
S'\x00\x00\x00\x00\x00\x00\x00\x00'
tRp239
sS'test_instance_status'
p240
g63
(g64
(I0
tS'b'
tRp241
(I1
(I1
tg54
(S'i8'
I0
I1
tRp242
(I3
S'<'
NNNI-1
I-1
I0
tbI00
S'\x00\x00\x00\x00\x00\x00\x00\x00'
tbsS'duration'
p243
g53
(g55
S'IX\n7\xcf\xc7\x93?'
tRp244
sS'test_status'
p245
I0
sS'test_result'
p246
Fnan
sS'test_instance_results'
p247
g63
(g64
(I0
tS'b'
tRp248
(I1
(I1
tg223
I00
S'\x00\x00\x00\x00\x00\x00\xf8\x7f'
tbsS'instance_status'
p249
g63
(g64
(I0
tS'b'
tRp250
(I1
(I1
tg242
I00
S'\xff\xff\xff\xff\xff\xff\xff\xff'
tbsS'instance_durations'
p251
g63
(g64
(I0
tS'b'
tRp252
(I1
(I1
tg223
I00
S'IX\n7\xcf\xc7\x93?'
tbsa(dp253
S'status'
p254
I-1
sS'std'
p255
g53
(g55
S'\x00\x00\x00\x00\x00\x00\x00\x00'
tRp256
sS'test_additional_data'
p257
g58
(g59
tRp258
sS'test_duration'
p259
Fnan
sS'instance_results'
p260
g63
(g64
(I0
tS'b'
tRp261
(I1
(I1
tg54
(S'f8'
I0
I1
tRp262
(I3
S'<'
NNNI-1
I-1
I0
tbI00
S'\x00\x00\x00\x00\x00\x00\x00\x00'
tbsS'test_std'
p263
Fnan
sS'additional_data'
p264
g58
(g59
tRp265
I0
S'No result string returned. Please have a look at the runinstance output'
p266
ssS'test_instance_durations'
p267
g63
(g64
(I0
tS'b'
tRp268
(I1
(I1
tg262
I00
S'\x00\x00\x00\x00\x00\x00\xf8\x7f'
tbsS'params'
p269
g74
((lp270
(lp271
S'C'
aS'8.0'
p272
aa(lp273
S'Sigma'
p274
aS'11.6071819687'
p275
aatRp276
sS'result'
p277
g53
(g55
S'\x00\x00\x00\x00\x00\x00\x00\x00'
tRp278
sS'test_instance_status'
p279
g63
(g64
(I0
tS'b'
tRp280
(I1
(I1
tg54
(S'i8'
I0
I1
tRp281
(I3
S'<'
NNNI-1
I-1
I0
tbI00
S'\x00\x00\x00\x00\x00\x00\x00\x00'
tbsS'duration'
p282
g53
(g55
S'\xefuR_\x96v\xba?'
tRp283
sS'test_status'
p284
I0
sS'test_result'
p285
Fnan
sS'test_instance_results'
p286
g63
(g64
(I0
tS'b'
tRp287
(I1
(I1
tg262
I00
S'\x00\x00\x00\x00\x00\x00\xf8\x7f'
tbsS'instance_status'
p288
g63
(g64
(I0
tS'b'
tRp289
(I1
(I1
tg281
I00
S'\xff\xff\xff\xff\xff\xff\xff\xff'
tbsS'instance_durations'
p290
g63
(g64
(I0
tS'b'
tRp291
(I1
(I1
tg262
I00
S'\xefuR_\x96v\xba?'
tbsa(dp292
S'status'
p293
I-1
sS'std'
p294
g53
(g55
S'\x00\x00\x00\x00\x00\x00\x00\x00'
tRp295
sS'test_additional_data'
p296
g58
(g59
tRp297
sS'test_duration'
p298
Fnan
sS'instance_results'
p299
g63
(g64
(I0
tS'b'
tRp300
(I1
(I1
tg54
(S'f8'
I0
I1
tRp301
(I3
S'<'
NNNI-1
I-1
I0
tbI00
S'\x00\x00\x00\x00\x00\x00\x00\x00'
tbsS'test_std'
p302
Fnan
sS'additional_data'
p303
g58
(g59
tRp304
I0
S'No result string returned. Please have a look at the runinstance output'
p305
ssS'test_instance_durations'
p306
g63
(g64
(I0
tS'b'
tRp307
(I1
(I1
tg301
I00
S'\x00\x00\x00\x00\x00\x00\xf8\x7f'
tbsS'params'
p308
g74
((lp309
(lp310
S'C'
aS'19.0'
p311
aa(lp312
S'Sigma'
p313
aS'0.992007761861'
p314
aatRp315
sS'result'
p316
g53
(g55
S'\x00\x00\x00\x00\x00\x00\x00\x00'
tRp317
sS'test_instance_status'
p318
g63
(g64
(I0
tS'b'
tRp319
(I1
(I1
tg54
(S'i8'
I0
I1
tRp320
(I3
S'<'
NNNI-1
I-1
I0
tbI00
S'\x00\x00\x00\x00\x00\x00\x00\x00'
tbsS'duration'
p321
g53
(g55
S'\x8b\xd97\x9c\x9e\x1c\xa6?'
tRp322
sS'test_status'
p323
I0
sS'test_result'
p324
Fnan
sS'test_instance_results'
p325
g63
(g64
(I0
tS'b'
tRp326
(I1
(I1
tg301
I00
S'\x00\x00\x00\x00\x00\x00\xf8\x7f'
tbsS'instance_status'
p327
g63
(g64
(I0
tS'b'
tRp328
(I1
(I1
tg320
I00
S'\xff\xff\xff\xff\xff\xff\xff\xff'
tbsS'instance_durations'
p329
g63
(g64
(I0
tS'b'
tRp330
(I1
(I1
tg301
I00
S'\x8b\xd97\x9c\x9e\x1c\xa6?'
tbsa(dp331
S'status'
p332
I-1
sS'std'
p333
g53
(g55
S'\x00\x00\x00\x00\x00\x00\x00\x00'
tRp334
sS'test_additional_data'
p335
g58
(g59
tRp336
sS'test_duration'
p337
Fnan
sS'instance_results'
p338
g63
(g64
(I0
tS'b'
tRp339
(I1
(I1
tg54
(S'f8'
I0
I1
tRp340
(I3
S'<'
NNNI-1
I-1
I0
tbI00
S'\x00\x00\x00\x00\x00\x00\x00\x00'
tbsS'test_std'
p341
Fnan
sS'additional_data'
p342
g58
(g59
tRp343
I0
S'No result string returned. Please have a look at the runinstance output'
p344
ssS'test_instance_durations'
p345
g63
(g64
(I0
tS'b'
tRp346
(I1
(I1
tg340
I00
S'\x00\x00\x00\x00\x00\x00\xf8\x7f'
tbsS'params'
p347
g74
((lp348
(lp349
S'C'
aS'23.0'
p350
aa(lp351
S'Sigma'
p352
aS'11.3545822363'
p353
aatRp354
sS'result'
p355
g53
(g55
S'\x00\x00\x00\x00\x00\x00\x00\x00'
tRp356
sS'test_instance_status'
p357
g63
(g64
(I0
tS'b'
tRp358
(I1
(I1
tg54
(S'i8'
I0
I1
tRp359
(I3
S'<'
NNNI-1
I-1
I0
tbI00
S'\x00\x00\x00\x00\x00\x00\x00\x00'
tbsS'duration'
p360
g53
(g55
S'\xca\xfa\xcd\xc4t!\x96?'
tRp361
sS'test_status'
p362
I0
sS'test_result'
p363
Fnan
sS'test_instance_results'
p364
g63
(g64
(I0
tS'b'
tRp365
(I1
(I1
tg340
I00
S'\x00\x00\x00\x00\x00\x00\xf8\x7f'
tbsS'instance_status'
p366
g63
(g64
(I0
tS'b'
tRp367
(I1
(I1
tg359
I00
S'\xff\xff\xff\xff\xff\xff\xff\xff'
tbsS'instance_durations'
p368
g63
(g64
(I0
tS'b'
tRp369
(I1
(I1
tg340
I00
S'\xca\xfa\xcd\xc4t!\x96?'
tbsa(dp370
S'status'
p371
I-1
sS'std'
p372
g53
(g55
S'\x00\x00\x00\x00\x00\x00\x00\x00'
tRp373
sS'test_additional_data'
p374
g58
(g59
tRp375
sS'test_duration'
p376
Fnan
sS'instance_results'
p377
g63
(g64
(I0
tS'b'
tRp378
(I1
(I1
tg54
(S'f8'
I0
I1
tRp379
(I3
S'<'
NNNI-1
I-1
I0
tbI00
S'\x00\x00\x00\x00\x00\x00\x00\x00'
tbsS'test_std'
p380
Fnan
sS'additional_data'
p381
g58
(g59
tRp382
I0
S'No result string returned. Please have a look at the runinstance output'
p383
ssS'test_instance_durations'
p384
g63
(g64
(I0
tS'b'
tRp385
(I1
(I1
tg379
I00
S'\x00\x00\x00\x00\x00\x00\xf8\x7f'
tbsS'params'
p386
g74
((lp387
(lp388
S'C'
aS'12.0'
p389
aa(lp390
S'Sigma'
p391
aS'0.134864000514'
p392
aatRp393
sS'result'
p394
g53
(g55
S'\x00\x00\x00\x00\x00\x00\x00\x00'
tRp395
sS'test_instance_status'
p396
g63
(g64
(I0
tS'b'
tRp397
(I1
(I1
tg54
(S'i8'
I0
I1
tRp398
(I3
S'<'
NNNI-1
I-1
I0
tbI00
S'\x00\x00\x00\x00\x00\x00\x00\x00'
tbsS'duration'
p399
g53
(g55
S'\x9c27\xdf\x88\xee\x99?'
tRp400
sS'test_status'
p401
I0
sS'test_result'
p402
Fnan
sS'test_instance_results'
p403
g63
(g64
(I0
tS'b'
tRp404
(I1
(I1
tg379
I00
S'\x00\x00\x00\x00\x00\x00\xf8\x7f'
tbsS'instance_status'
p405
g63
(g64
(I0
tS'b'
tRp406
(I1
(I1
tg398
I00
S'\xff\xff\xff\xff\xff\xff\xff\xff'
tbsS'instance_durations'
p407
g63
(g64
(I0
tS'b'
tRp408
(I1
(I1
tg379
I00
S'\x9c27\xdf\x88\xee\x99?'
tbsa(dp409
S'status'
p410
I-1
sS'std'
p411
g53
(g55
S'\x00\x00\x00\x00\x00\x00\x00\x00'
tRp412
sS'test_additional_data'
p413
g58
(g59
tRp414
sS'test_duration'
p415
Fnan
sS'instance_results'
p416
g63
(g64
(I0
tS'b'
tRp417
(I1
(I1
tg54
(S'f8'
I0
I1
tRp418
(I3
S'<'
NNNI-1
I-1
I0
tbI00
S'\x00\x00\x00\x00\x00\x00\x00\x00'
tbsS'test_std'
p419
Fnan
sS'additional_data'
p420
g58
(g59
tRp421
I0
S'No result string returned. Please have a look at the runinstance output'
p422
ssS'test_instance_durations'
p423
g63
(g64
(I0
tS'b'
tRp424
(I1
(I1
tg418
I00
S'\x00\x00\x00\x00\x00\x00\xf8\x7f'
tbsS'params'
p425
g74
((lp426
(lp427
S'C'
aS'0.0'
p428
aa(lp429
S'Sigma'
p430
aS'10.0271683625'
p431
aatRp432
sS'result'
p433
g53
(g55
S'\x00\x00\x00\x00\x00\x00\x00\x00'
tRp434
sS'test_instance_status'
p435
g63
(g64
(I0
tS'b'
tRp436
(I1
(I1
tg54
(S'i8'
I0
I1
tRp437
(I3
S'<'
NNNI-1
I-1
I0
tbI00
S'\x00\x00\x00\x00\x00\x00\x00\x00'
tbsS'duration'
p438
g53
(g55
S'\xcbM\xd4\xd2\xdc\n\xa1?'
tRp439
sS'test_status'
p440
I0
sS'test_result'
p441
Fnan
sS'test_instance_results'
p442
g63
(g64
(I0
tS'b'
tRp443
(I1
(I1
tg418
I00
S'\x00\x00\x00\x00\x00\x00\xf8\x7f'
tbsS'instance_status'
p444
g63
(g64
(I0
tS'b'
tRp445
(I1
(I1
tg437
I00
S'\xff\xff\xff\xff\xff\xff\xff\xff'
tbsS'instance_durations'
p446
g63
(g64
(I0
tS'b'
tRp447
(I1
(I1
tg418
I00
S'\xcbM\xd4\xd2\xdc\n\xa1?'
tbsa(dp448
S'status'
p449
I-1
sS'std'
p450
g53
(g55
S'\x00\x00\x00\x00\x00\x00\x00\x00'
tRp451
sS'test_additional_data'
p452
g58
(g59
tRp453
sS'test_duration'
p454
Fnan
sS'instance_results'
p455
g63
(g64
(I0
tS'b'
tRp456
(I1
(I1
tg54
(S'f8'
I0
I1
tRp457
(I3
S'<'
NNNI-1
I-1
I0
tbI00
S'\x00\x00\x00\x00\x00\x00\x00\x00'
tbsS'test_std'
p458
Fnan
sS'additional_data'
p459
g58
(g59
tRp460
I0
S'No result string returned. Please have a look at the runinstance output'
p461
ssS'test_instance_durations'
p462
g63
(g64
(I0
tS'b'
tRp463
(I1
(I1
tg457
I00
S'\x00\x00\x00\x00\x00\x00\xf8\x7f'
tbsS'params'
p464
g74
((lp465
(lp466
S'C'
aS'0.0'
p467
aa(lp468
S'Sigma'
p469
aS'2.3435059554'
p470
aatRp471
sS'result'
p472
g53
(g55
S'\x00\x00\x00\x00\x00\x00\x00\x00'
tRp473
sS'test_instance_status'
p474
g63
(g64
(I0
tS'b'
tRp475
(I1
(I1
tg54
(S'i8'
I0
I1
tRp476
(I3
S'<'
NNNI-1
I-1
I0
tbI00
S'\x00\x00\x00\x00\x00\x00\x00\x00'
tbsS'duration'
p477
g53
(g55
S'\xa3\x95{\x81Y\xa1\x98?'
tRp478
sS'test_status'
p479
I0
sS'test_result'
p480
Fnan
sS'test_instance_results'
p481
g63
(g64
(I0
tS'b'
tRp482
(I1
(I1
tg457
I00
S'\x00\x00\x00\x00\x00\x00\xf8\x7f'
tbsS'instance_status'
p483
g63
(g64
(I0
tS'b'
tRp484
(I1
(I1
tg476
I00
S'\xff\xff\xff\xff\xff\xff\xff\xff'
tbsS'instance_durations'
p485
g63
(g64
(I0
tS'b'
tRp486
(I1
(I1
tg457
I00
S'\xa3\x95{\x81Y\xa1\x98?'
tbsa(dp487
S'status'
p488
I-1
sS'std'
p489
g53
(g55
S'\x00\x00\x00\x00\x00\x00\x00\x00'
tRp490
sS'test_additional_data'
p491
g58
(g59
tRp492
sS'test_duration'
p493
Fnan
sS'instance_results'
p494
g63
(g64
(I0
tS'b'
tRp495
(I1
(I1
tg54
(S'f8'
I0
I1
tRp496
(I3
S'<'
NNNI-1
I-1
I0
tbI00
S'\x00\x00\x00\x00\x00\x00\x00\x00'
tbsS'test_std'
p497
Fnan
sS'additional_data'
p498
g58
(g59
tRp499
I0
S'No result string returned. Please have a look at the runinstance output'
p500
ssS'test_instance_durations'
p501
g63
(g64
(I0
tS'b'
tRp502
(I1
(I1
tg496
I00
S'\x00\x00\x00\x00\x00\x00\xf8\x7f'
tbsS'params'
p503
g74
((lp504
(lp505
S'C'
aS'18.0'
p506
aa(lp507
S'Sigma'
p508
aS'2.00411695094'
p509
aatRp510
sS'result'
p511
g53
(g55
S'\x00\x00\x00\x00\x00\x00\x00\x00'
tRp512
sS'test_instance_status'
p513
g63
(g64
(I0
tS'b'
tRp514
(I1
(I1
tg54
(S'i8'
I0
I1
tRp515
(I3
S'<'
NNNI-1
I-1
I0
tbI00
S'\x00\x00\x00\x00\x00\x00\x00\x00'
tbsS'duration'
p516
g53
(g55
S'\xc7Ia\xde\xe3L\x93?'
tRp517
sS'test_status'
p518
I0
sS'test_result'
p519
Fnan
sS'test_instance_results'
p520
g63
(g64
(I0
tS'b'
tRp521
(I1
(I1
tg496
I00
S'\x00\x00\x00\x00\x00\x00\xf8\x7f'
tbsS'instance_status'
p522
g63
(g64
(I0
tS'b'
tRp523
(I1
(I1
tg515
I00
S'\xff\xff\xff\xff\xff\xff\xff\xff'
tbsS'instance_durations'
p524
g63
(g64
(I0
tS'b'
tRp525
(I1
(I1
tg496
I00
S'\xc7Ia\xde\xe3L\x93?'
tbsa(dp526
S'status'
p527
I-1
sS'std'
p528
g53
(g55
S'\x00\x00\x00\x00\x00\x00\x00\x00'
tRp529
sS'test_additional_data'
p530
g58
(g59
tRp531
sS'test_duration'
p532
Fnan
sS'instance_results'
p533
g63
(g64
(I0
tS'b'
tRp534
(I1
(I1
tg54
(S'f8'
I0
I1
tRp535
(I3
S'<'
NNNI-1
I-1
I0
tbI00
S'\x00\x00\x00\x00\x00\x00\x00\x00'
tbsS'test_std'
p536
Fnan
sS'additional_data'
p537
g58
(g59
tRp538
I0
S'No result string returned. Please have a look at the runinstance output'
p539
ssS'test_instance_durations'
p540
g63
(g64
(I0
tS'b'
tRp541
(I1
(I1
tg535
I00
S'\x00\x00\x00\x00\x00\x00\xf8\x7f'
tbsS'params'
p542
g74
((lp543
(lp544
S'C'
aS'6.0'
p545
aa(lp546
S'Sigma'
p547
aS'10.1101313375'
p548
aatRp549
sS'result'
p550
g53
(g55
S'\x00\x00\x00\x00\x00\x00\x00\x00'
tRp551
sS'test_instance_status'
p552
g63
(g64
(I0
tS'b'
tRp553
(I1
(I1
tg54
(S'i8'
I0
I1
tRp554
(I3
S'<'
NNNI-1
I-1
I0
tbI00
S'\x00\x00\x00\x00\x00\x00\x00\x00'
tbsS'duration'
p555
g53
(g55
S'\ne\xe1\xebk]\x9a?'
tRp556
sS'test_status'
p557
I0
sS'test_result'
p558
Fnan
sS'test_instance_results'
p559
g63
(g64
(I0
tS'b'
tRp560
(I1
(I1
tg535
I00
S'\x00\x00\x00\x00\x00\x00\xf8\x7f'
tbsS'instance_status'
p561
g63
(g64
(I0
tS'b'
tRp562
(I1
(I1
tg554
I00
S'\xff\xff\xff\xff\xff\xff\xff\xff'
tbsS'instance_durations'
p563
g63
(g64
(I0
tS'b'
tRp564
(I1
(I1
tg535
I00
S'\ne\xe1\xebk]\x9a?'
tbsa(dp565
S'status'
p566
I-1
sS'std'
p567
g53
(g55
S'\x00\x00\x00\x00\x00\x00\x00\x00'
tRp568
sS'test_additional_data'
p569
g58
(g59
tRp570
sS'test_duration'
p571
Fnan
sS'instance_results'
p572
g63
(g64
(I0
tS'b'
tRp573
(I1
(I1
tg54
(S'f8'
I0
I1
tRp574
(I3
S'<'
NNNI-1
I-1
I0
tbI00
S'\x00\x00\x00\x00\x00\x00\x00\x00'
tbsS'test_std'
p575
Fnan
sS'additional_data'
p576
g58
(g59
tRp577
I0
S'No result string returned. Please have a look at the runinstance output'
p578
ssS'test_instance_durations'
p579
g63
(g64
(I0
tS'b'
tRp580
(I1
(I1
tg574
I00
S'\x00\x00\x00\x00\x00\x00\xf8\x7f'
tbsS'params'
p581
g74
((lp582
(lp583
S'C'
aS'19.0'
p584
aa(lp585
S'Sigma'
p586
aS'6.68126346904'
p587
aatRp588
sS'result'
p589
g53
(g55
S'\x00\x00\x00\x00\x00\x00\x00\x00'
tRp590
sS'test_instance_status'
p591
g63
(g64
(I0
tS'b'
tRp592
(I1
(I1
tg54
(S'i8'
I0
I1
tRp593
(I3
S'<'
NNNI-1
I-1
I0
tbI00
S'\x00\x00\x00\x00\x00\x00\x00\x00'
tbsS'duration'
p594
g53
(g55
S'Q\xf7\x01Hm\xe2\x94?'
tRp595
sS'test_status'
p596
I0
sS'test_result'
p597
Fnan
sS'test_instance_results'
p598
g63
(g64
(I0
tS'b'
tRp599
(I1
(I1
tg574
I00
S'\x00\x00\x00\x00\x00\x00\xf8\x7f'
tbsS'instance_status'
p600
g63
(g64
(I0
tS'b'
tRp601
(I1
(I1
tg593
I00
S'\xff\xff\xff\xff\xff\xff\xff\xff'
tbsS'instance_durations'
p602
g63
(g64
(I0
tS'b'
tRp603
(I1
(I1
tg574
I00
S'Q\xf7\x01Hm\xe2\x94?'
tbsa(dp604
S'status'
p605
I-1
sS'std'
p606
g53
(g55
S'\x00\x00\x00\x00\x00\x00\x00\x00'
tRp607
sS'test_additional_data'
p608
g58
(g59
tRp609
sS'test_duration'
p610
Fnan
sS'instance_results'
p611
g63
(g64
(I0
tS'b'
tRp612
(I1
(I1
tg54
(S'f8'
I0
I1
tRp613
(I3
S'<'
NNNI-1
I-1
I0
tbI00
S'\x00\x00\x00\x00\x00\x00\x00\x00'
tbsS'test_std'
p614
Fnan
sS'additional_data'
p615
g58
(g59
tRp616
I0
S'No result string returned. Please have a look at the runinstance output'
p617
ssS'test_instance_durations'
p618
g63
(g64
(I0
tS'b'
tRp619
(I1
(I1
tg613
I00
S'\x00\x00\x00\x00\x00\x00\xf8\x7f'
tbsS'params'
p620
g74
((lp621
(lp622
S'C'
aS'4.0'
p623
aa(lp624
S'Sigma'
p625
aS'11.0346300645'
p626
aatRp627
sS'result'
p628
g53
(g55
S'\x00\x00\x00\x00\x00\x00\x00\x00'
tRp629
sS'test_instance_status'
p630
g63
(g64
(I0
tS'b'
tRp631
(I1
(I1
tg54
(S'i8'
I0
I1
tRp632
(I3
S'<'
NNNI-1
I-1
I0
tbI00
S'\x00\x00\x00\x00\x00\x00\x00\x00'
tbsS'duration'
p633
g53
(g55
S'\xe8\xd1\x9e\xdc\x00}\x94?'
tRp634
sS'test_status'
p635
I0
sS'test_result'
p636
Fnan
sS'test_instance_results'
p637
g63
(g64
(I0
tS'b'
tRp638
(I1
(I1
tg613
I00
S'\x00\x00\x00\x00\x00\x00\xf8\x7f'
tbsS'instance_status'
p639
g63
(g64
(I0
tS'b'
tRp640
(I1
(I1
tg632
I00
S'\xff\xff\xff\xff\xff\xff\xff\xff'
tbsS'instance_durations'
p641
g63
(g64
(I0
tS'b'
tRp642
(I1
(I1
tg613
I00
S'\xe8\xd1\x9e\xdc\x00}\x94?'
tbsa(dp643
S'status'
p644
I-1
sS'std'
p645
g53
(g55
S'\x00\x00\x00\x00\x00\x00\x00\x00'
tRp646
sS'test_additional_data'
p647
g58
(g59
tRp648
sS'test_duration'
p649
Fnan
sS'instance_results'
p650
g63
(g64
(I0
tS'b'
tRp651
(I1
(I1
tg54
(S'f8'
I0
I1
tRp652
(I3
S'<'
NNNI-1
I-1
I0
tbI00
S'\x00\x00\x00\x00\x00\x00\x00\x00'
tbsS'test_std'
p653
Fnan
sS'additional_data'
p654
g58
(g59
tRp655
I0
S'No result string returned. Please have a look at the runinstance output'
p656
ssS'test_instance_durations'
p657
g63
(g64
(I0
tS'b'
tRp658
(I1
(I1
tg652
I00
S'\x00\x00\x00\x00\x00\x00\xf8\x7f'
tbsS'params'
p659
g74
((lp660
(lp661
S'C'
aS'13.0'
p662
aa(lp663
S'Sigma'
p664
aS'2.902784029'
p665
aatRp666
sS'result'
p667
g53
(g55
S'\x00\x00\x00\x00\x00\x00\x00\x00'
tRp668
sS'test_instance_status'
p669
g63
(g64
(I0
tS'b'
tRp670
(I1
(I1
tg54
(S'i8'
I0
I1
tRp671
(I3
S'<'
NNNI-1
I-1
I0
tbI00
S'\x00\x00\x00\x00\x00\x00\x00\x00'
tbsS'duration'
p672
g53
(g55
S'|\xc33W\xbcG\x94?'
tRp673
sS'test_status'
p674
I0
sS'test_result'
p675
Fnan
sS'test_instance_results'
p676
g63
(g64
(I0
tS'b'
tRp677
(I1
(I1
tg652
I00
S'\x00\x00\x00\x00\x00\x00\xf8\x7f'
tbsS'instance_status'
p678
g63
(g64
(I0
tS'b'
tRp679
(I1
(I1
tg671
I00
S'\xff\xff\xff\xff\xff\xff\xff\xff'
tbsS'instance_durations'
p680
g63
(g64
(I0
tS'b'
tRp681
(I1
(I1
tg652
I00
S'|\xc33W\xbcG\x94?'
tbsa(dp682
S'status'
p683
I-1
sS'std'
p684
g53
(g55
S'\x00\x00\x00\x00\x00\x00\x00\x00'
tRp685
sS'test_additional_data'
p686
g58
(g59
tRp687
sS'test_duration'
p688
Fnan
sS'instance_results'
p689
g63
(g64
(I0
tS'b'
tRp690
(I1
(I1
tg54
(S'f8'
I0
I1
tRp691
(I3
S'<'
NNNI-1
I-1
I0
tbI00
S'\x00\x00\x00\x00\x00\x00\x00\x00'
tbsS'test_std'
p692
Fnan
sS'additional_data'
p693
g58
(g59
tRp694
I0
S'No result string returned. Please have a look at the runinstance output'
p695
ssS'test_instance_durations'
p696
g63
(g64
(I0
tS'b'
tRp697
(I1
(I1
tg691
I00
S'\x00\x00\x00\x00\x00\x00\xf8\x7f'
tbsS'params'
p698
g74
((lp699
(lp700
S'C'
aS'13.0'
p701
aa(lp702
S'Sigma'
p703
aS'3.83064503493'
p704
aatRp705
sS'result'
p706
g53
(g55
S'\x00\x00\x00\x00\x00\x00\x00\x00'
tRp707
sS'test_instance_status'
p708
g63
(g64
(I0
tS'b'
tRp709
(I1
(I1
tg54
(S'i8'
I0
I1
tRp710
(I3
S'<'
NNNI-1
I-1
I0
tbI00
S'\x00\x00\x00\x00\x00\x00\x00\x00'
tbsS'duration'
p711
g53
(g55
S'\x9b!U\x14\xaf\xb2\x96?'
tRp712
sS'test_status'
p713
I0
sS'test_result'
p714
Fnan
sS'test_instance_results'
p715
g63
(g64
(I0
tS'b'
tRp716
(I1
(I1
tg691
I00
S'\x00\x00\x00\x00\x00\x00\xf8\x7f'
tbsS'instance_status'
p717
g63
(g64
(I0
tS'b'
tRp718
(I1
(I1
tg710
I00
S'\xff\xff\xff\xff\xff\xff\xff\xff'
tbsS'instance_durations'
p719
g63
(g64
(I0
tS'b'
tRp720
(I1
(I1
tg691
I00
S'\x9b!U\x14\xaf\xb2\x96?'
tbsa(dp721
S'status'
p722
I-1
sS'std'
p723
g53
(g55
S'\x00\x00\x00\x00\x00\x00\x00\x00'
tRp724
sS'test_additional_data'
p725
g58
(g59
tRp726
sS'test_duration'
p727
Fnan
sS'instance_results'
p728
g63
(g64
(I0
tS'b'
tRp729
(I1
(I1
tg54
(S'f8'
I0
I1
tRp730
(I3
S'<'
NNNI-1
I-1
I0
tbI00
S'\x00\x00\x00\x00\x00\x00\x00\x00'
tbsS'test_std'
p731
Fnan
sS'additional_data'
p732
g58
(g59
tRp733
I0
S'No result string returned. Please have a look at the runinstance output'
p734
ssS'test_instance_durations'
p735
g63
(g64
(I0
tS'b'
tRp736
(I1
(I1
tg730
I00
S'\x00\x00\x00\x00\x00\x00\xf8\x7f'
tbsS'params'
p737
g74
((lp738
(lp739
S'C'
aS'12.0'
p740
aa(lp741
S'Sigma'
p742
aS'8.45486514261'
p743
aatRp744
sS'result'
p745
g53
(g55
S'\x00\x00\x00\x00\x00\x00\x00\x00'
tRp746
sS'test_instance_status'
p747
g63
(g64
(I0
tS'b'
tRp748
(I1
(I1
tg54
(S'i8'
I0
I1
tRp749
(I3
S'<'
NNNI-1
I-1
I0
tbI00
S'\x00\x00\x00\x00\x00\x00\x00\x00'
tbsS'duration'
p750
g53
(g55
S'$\x9a@\x11\x8b\x18\x96?'
tRp751
sS'test_status'
p752
I0
sS'test_result'
p753
Fnan
sS'test_instance_results'
p754
g63
(g64
(I0
tS'b'
tRp755
(I1
(I1
tg730
I00
S'\x00\x00\x00\x00\x00\x00\xf8\x7f'
tbsS'instance_status'
p756
g63
(g64
(I0
tS'b'
tRp757
(I1
(I1
tg749
I00
S'\xff\xff\xff\xff\xff\xff\xff\xff'
tbsS'instance_durations'
p758
g63
(g64
(I0
tS'b'
tRp759
(I1
(I1
tg730
I00
S'$\x9a@\x11\x8b\x18\x96?'
tbsa(dp760
S'status'
p761
I-1
sS'std'
p762
g53
(g55
S'\x00\x00\x00\x00\x00\x00\x00\x00'
tRp763
sS'test_additional_data'
p764
g58
(g59
tRp765
sS'test_duration'
p766
Fnan
sS'instance_results'
p767
g63
(g64
(I0
tS'b'
tRp768
(I1
(I1
tg54
(S'f8'
I0
I1
tRp769
(I3
S'<'
NNNI-1
I-1
I0
tbI00
S'\x00\x00\x00\x00\x00\x00\x00\x00'
tbsS'test_std'
p770
Fnan
sS'additional_data'
p771
g58
(g59
tRp772
I0
S'No result string returned. Please have a look at the runinstance output'
p773
ssS'test_instance_durations'
p774
g63
(g64
(I0
tS'b'
tRp775
(I1
(I1
tg769
I00
S'\x00\x00\x00\x00\x00\x00\xf8\x7f'
tbsS'params'
p776
g74
((lp777
(lp778
S'C'
aS'18.0'
p779
aa(lp780
S'Sigma'
p781
aS'1.26793682274'
p782
aatRp783
sS'result'
p784
g53
(g55
S'\x00\x00\x00\x00\x00\x00\x00\x00'
tRp785
sS'test_instance_status'
p786
g63
(g64
(I0
tS'b'
tRp787
(I1
(I1
tg54
(S'i8'
I0
I1
tRp788
(I3
S'<'
NNNI-1
I-1
I0
tbI00
S'\x00\x00\x00\x00\x00\x00\x00\x00'
tbsS'duration'
p789
g53
(g55
S'L\xd3\xb1\x94v\xb4\x93?'
tRp790
sS'test_status'
p791
I0
sS'test_result'
p792
Fnan
sS'test_instance_results'
p793
g63
(g64
(I0
tS'b'
tRp794
(I1
(I1
tg769
I00
S'\x00\x00\x00\x00\x00\x00\xf8\x7f'
tbsS'instance_status'
p795
g63
(g64
(I0
tS'b'
tRp796
(I1
(I1
tg788
I00
S'\xff\xff\xff\xff\xff\xff\xff\xff'
tbsS'instance_durations'
p797
g63
(g64
(I0
tS'b'
tRp798
(I1
(I1
tg769
I00
S'L\xd3\xb1\x94v\xb4\x93?'
tbsa(dp799
S'status'
p800
I-1
sS'std'
p801
g53
(g55
S'\x00\x00\x00\x00\x00\x00\x00\x00'
tRp802
sS'test_additional_data'
p803
g58
(g59
tRp804
sS'test_duration'
p805
Fnan
sS'instance_results'
p806
g63
(g64
(I0
tS'b'
tRp807
(I1
(I1
tg54
(S'f8'
I0
I1
tRp808
(I3
S'<'
NNNI-1
I-1
I0
tbI00
S'\x00\x00\x00\x00\x00\x00\x00\x00'
tbsS'test_std'
p809
Fnan
sS'additional_data'
p810
g58
(g59
tRp811
I0
S'No result string returned. Please have a look at the runinstance output'
p812
ssS'test_instance_durations'
p813
g63
(g64
(I0
tS'b'
tRp814
(I1
(I1
tg808
I00
S'\x00\x00\x00\x00\x00\x00\xf8\x7f'
tbsS'params'
p815
g74
((lp816
(lp817
S'C'
aS'22.0'
p818
aa(lp819
S'Sigma'
p820
aS'7.645700414'
p821
aatRp822
sS'result'
p823
g53
(g55
S'\x00\x00\x00\x00\x00\x00\x00\x00'
tRp824
sS'test_instance_status'
p825
g63
(g64
(I0
tS'b'
tRp826
(I1
(I1
tg54
(S'i8'
I0
I1
tRp827
(I3
S'<'
NNNI-1
I-1
I0
tbI00
S'\x00\x00\x00\x00\x00\x00\x00\x00'
tbsS'duration'
p828
g53
(g55
S'\xc4\xdd\x0f.\xd3\xe5\x9b?'
tRp829
sS'test_status'
p830
I0
sS'test_result'
p831
Fnan
sS'test_instance_results'
p832
g63
(g64
(I0
tS'b'
tRp833
(I1
(I1
tg808
I00
S'\x00\x00\x00\x00\x00\x00\xf8\x7f'
tbsS'instance_status'
p834
g63
(g64
(I0
tS'b'
tRp835
(I1
(I1
tg827
I00
S'\xff\xff\xff\xff\xff\xff\xff\xff'
tbsS'instance_durations'
p836
g63
(g64
(I0
tS'b'
tRp837
(I1
(I1
tg808
I00
S'\xc4\xdd\x0f.\xd3\xe5\x9b?'
tbsa(dp838
S'status'
p839
I-1
sS'std'
p840
g53
(g55
S'\x00\x00\x00\x00\x00\x00\x00\x00'
tRp841
sS'test_additional_data'
p842
g58
(g59
tRp843
sS'test_duration'
p844
Fnan
sS'instance_results'
p845
g63
(g64
(I0
tS'b'
tRp846
(I1
(I1
tg54
(S'f8'
I0
I1
tRp847
(I3
S'<'
NNNI-1
I-1
I0
tbI00
S'\x00\x00\x00\x00\x00\x00\x00\x00'
tbsS'test_std'
p848
Fnan
sS'additional_data'
p849
g58
(g59
tRp850
I0
S'No result string returned. Please have a look at the runinstance output'
p851
ssS'test_instance_durations'
p852
g63
(g64
(I0
tS'b'
tRp853
(I1
(I1
tg847
I00
S'\x00\x00\x00\x00\x00\x00\xf8\x7f'
tbsS'params'
p854
g74
((lp855
(lp856
S'C'
aS'15.0'
p857
aa(lp858
S'Sigma'
p859
aS'8.57899066605'
p860
aatRp861
sS'result'
p862
g53
(g55
S'\x00\x00\x00\x00\x00\x00\x00\x00'
tRp863
sS'test_instance_status'
p864
g63
(g64
(I0
tS'b'
tRp865
(I1
(I1
tg54
(S'i8'
I0
I1
tRp866
(I3
S'<'
NNNI-1
I-1
I0
tbI00
S'\x00\x00\x00\x00\x00\x00\x00\x00'
tbsS'duration'
p867
g53
(g55
S'\xa7!\xaa\xf0gx\x93?'
tRp868
sS'test_status'
p869
I0
sS'test_result'
p870
Fnan
sS'test_instance_results'
p871
g63
(g64
(I0
tS'b'
tRp872
(I1
(I1
tg847
I00
S'\x00\x00\x00\x00\x00\x00\xf8\x7f'
tbsS'instance_status'
p873
g63
(g64
(I0
tS'b'
tRp874
(I1
(I1
tg866
I00
S'\xff\xff\xff\xff\xff\xff\xff\xff'
tbsS'instance_durations'
p875
g63
(g64
(I0
tS'b'
tRp876
(I1
(I1
tg847
I00
S'\xa7!\xaa\xf0gx\x93?'
tbsa(dp877
S'status'
p878
I-1
sS'std'
p879
g53
(g55
S'\x00\x00\x00\x00\x00\x00\x00\x00'
tRp880
sS'test_additional_data'
p881
g58
(g59
tRp882
sS'test_duration'
p883
Fnan
sS'instance_results'
p884
g63
(g64
(I0
tS'b'
tRp885
(I1
(I1
tg54
(S'f8'
I0
I1
tRp886
(I3
S'<'
NNNI-1
I-1
I0
tbI00
S'\x00\x00\x00\x00\x00\x00\x00\x00'
tbsS'test_std'
p887
Fnan
sS'additional_data'
p888
g58
(g59
tRp889
I0
S'No result string returned. Please have a look at the runinstance output'
p890
ssS'test_instance_durations'
p891
g63
(g64
(I0
tS'b'
tRp892
(I1
(I1
tg886
I00
S'\x00\x00\x00\x00\x00\x00\xf8\x7f'
tbsS'params'
p893
g74
((lp894
(lp895
S'C'
aS'9.0'
p896
aa(lp897
S'Sigma'
p898
aS'5.02530661742'
p899
aatRp900
sS'result'
p901
g53
(g55
S'\x00\x00\x00\x00\x00\x00\x00\x00'
tRp902
sS'test_instance_status'
p903
g63
(g64
(I0
tS'b'
tRp904
(I1
(I1
tg54
(S'i8'
I0
I1
tRp905
(I3
S'<'
NNNI-1
I-1
I0
tbI00
S'\x00\x00\x00\x00\x00\x00\x00\x00'
tbsS'duration'
p906
g53
(g55
S'\\9{g\xb4U\x99?'
tRp907
sS'test_status'
p908
I0
sS'test_result'
p909
Fnan
sS'test_instance_results'
p910
g63
(g64
(I0
tS'b'
tRp911
(I1
(I1
tg886
I00
S'\x00\x00\x00\x00\x00\x00\xf8\x7f'
tbsS'instance_status'
p912
g63
(g64
(I0
tS'b'
tRp913
(I1
(I1
tg905
I00
S'\xff\xff\xff\xff\xff\xff\xff\xff'
tbsS'instance_durations'
p914
g63
(g64
(I0
tS'b'
tRp915
(I1
(I1
tg886
I00
S'\\9{g\xb4U\x99?'
tbsa(dp916
S'status'
p917
I-1
sS'std'
p918
g53
(g55
S'\x00\x00\x00\x00\x00\x00\x00\x00'
tRp919
sS'test_additional_data'
p920
g58
(g59
tRp921
sS'test_duration'
p922
Fnan
sS'instance_results'
p923
g63
(g64
(I0
tS'b'
tRp924
(I1
(I1
tg54
(S'f8'
I0
I1
tRp925
(I3
S'<'
NNNI-1
I-1
I0
tbI00
S'\x00\x00\x00\x00\x00\x00\x00\x00'
tbsS'test_std'
p926
Fnan
sS'additional_data'
p927
g58
(g59
tRp928
I0
S'No result string returned. Please have a look at the runinstance output'
p929
ssS'test_instance_durations'
p930
g63
(g64
(I0
tS'b'
tRp931
(I1
(I1
tg925
I00
S'\x00\x00\x00\x00\x00\x00\xf8\x7f'
tbsS'params'
p932
g74
((lp933
(lp934
S'C'
aS'24.0'
p935
aa(lp936
S'Sigma'
p937
aS'4.59257836614'
p938
aatRp939
sS'result'
p940
g53
(g55
S'\x00\x00\x00\x00\x00\x00\x00\x00'
tRp941
sS'test_instance_status'
p942
g63
(g64
(I0
tS'b'
tRp943
(I1
(I1
tg54
(S'i8'
I0
I1
tRp944
(I3
S'<'
NNNI-1
I-1
I0
tbI00
S'\x00\x00\x00\x00\x00\x00\x00\x00'
tbsS'duration'
p945
g53
(g55
S'ru\xb66C`\x93?'
tRp946
sS'test_status'
p947
I0
sS'test_result'
p948
Fnan
sS'test_instance_results'
p949
g63
(g64
(I0
tS'b'
tRp950
(I1
(I1
tg925
I00
S'\x00\x00\x00\x00\x00\x00\xf8\x7f'
tbsS'instance_status'
p951
g63
(g64
(I0
tS'b'
tRp952
(I1
(I1
tg944
I00
S'\xff\xff\xff\xff\xff\xff\xff\xff'
tbsS'instance_durations'
p953
g63
(g64
(I0
tS'b'
tRp954
(I1
(I1
tg925
I00
S'ru\xb66C`\x93?'
tbsa(dp955
S'status'
p956
I-1
sS'std'
p957
g53
(g55
S'\x00\x00\x00\x00\x00\x00\x00\x00'
tRp958
sS'test_additional_data'
p959
g58
(g59
tRp960
sS'test_duration'
p961
Fnan
sS'instance_results'
p962
g63
(g64
(I0
tS'b'
tRp963
(I1
(I1
tg54
(S'f8'
I0
I1
tRp964
(I3
S'<'
NNNI-1
I-1
I0
tbI00
S'\x00\x00\x00\x00\x00\x00\x00\x00'
tbsS'test_std'
p965
Fnan
sS'additional_data'
p966
g58
(g59
tRp967
I0
S'No result string returned. Please have a look at the runinstance output'
p968
ssS'test_instance_durations'
p969
g63
(g64
(I0
tS'b'
tRp970
(I1
(I1
tg964
I00
S'\x00\x00\x00\x00\x00\x00\xf8\x7f'
tbsS'params'
p971
g74
((lp972
(lp973
S'C'
aS'15.0'
p974
aa(lp975
S'Sigma'
p976
aS'9.17991977897'
p977
aatRp978
sS'result'
p979
g53
(g55
S'\x00\x00\x00\x00\x00\x00\x00\x00'
tRp980
sS'test_instance_status'
p981
g63
(g64
(I0
tS'b'
tRp982
(I1
(I1
tg54
(S'i8'
I0
I1
tRp983
(I3
S'<'
NNNI-1
I-1
I0
tbI00
S'\x00\x00\x00\x00\x00\x00\x00\x00'
tbsS'duration'
p984
g53
(g55
S'\x96vj.7\x18\x9a?'
tRp985
sS'test_status'
p986
I0
sS'test_result'
p987
Fnan
sS'test_instance_results'
p988
g63
(g64
(I0
tS'b'
tRp989
(I1
(I1
tg964
I00
S'\x00\x00\x00\x00\x00\x00\xf8\x7f'
tbsS'instance_status'
p990
g63
(g64
(I0
tS'b'
tRp991
(I1
(I1
tg983
I00
S'\xff\xff\xff\xff\xff\xff\xff\xff'
tbsS'instance_durations'
p992
g63
(g64
(I0
tS'b'
tRp993
(I1
(I1
tg964
I00
S'\x96vj.7\x18\x9a?'
tbsa(dp994
S'status'
p995
I-1
sS'std'
p996
g53
(g55
S'\x00\x00\x00\x00\x00\x00\x00\x00'
tRp997
sS'test_additional_data'
p998
g58
(g59
tRp999
sS'test_duration'
p1000
Fnan
sS'instance_results'
p1001
g63
(g64
(I0
tS'b'
tRp1002
(I1
(I1
tg54
(S'f8'
I0
I1
tRp1003
(I3
S'<'
NNNI-1
I-1
I0
tbI00
S'\x00\x00\x00\x00\x00\x00\x00\x00'
tbsS'test_std'
p1004
Fnan
sS'additional_data'
p1005
g58
(g59
tRp1006
I0
S'No result string returned. Please have a look at the runinstance output'
p1007
ssS'test_instance_durations'
p1008
g63
(g64
(I0
tS'b'
tRp1009
(I1
(I1
tg1003
I00
S'\x00\x00\x00\x00\x00\x00\xf8\x7f'
tbsS'params'
p1010
g74
((lp1011
(lp1012
S'C'
aS'8.0'
p1013
aa(lp1014
S'Sigma'
p1015
aS'4.95975453131'
p1016
aatRp1017
sS'result'
p1018
g53
(g55
S'\x00\x00\x00\x00\x00\x00\x00\x00'
tRp1019
sS'test_instance_status'
p1020
g63
(g64
(I0
tS'b'
tRp1021
(I1
(I1
tg54
(S'i8'
I0
I1
tRp1022
(I3
S'<'
NNNI-1
I-1
I0
tbI00
S'\x00\x00\x00\x00\x00\x00\x00\x00'
tbsS'duration'
p1023
g53
(g55
S'\xd4\xd7\xf35\xcbe\x93?'
tRp1024
sS'test_status'
p1025
I0
sS'test_result'
p1026
Fnan
sS'test_instance_results'
p1027
g63
(g64
(I0
tS'b'
tRp1028
(I1
(I1
tg1003
I00
S'\x00\x00\x00\x00\x00\x00\xf8\x7f'
tbsS'instance_status'
p1029
g63
(g64
(I0
tS'b'
tRp1030
(I1
(I1
tg1022
I00
S'\xff\xff\xff\xff\xff\xff\xff\xff'
tbsS'instance_durations'
p1031
g63
(g64
(I0
tS'b'
tRp1032
(I1
(I1
tg1003
I00
S'\xd4\xd7\xf35\xcbe\x93?'
tbsa(dp1033
S'status'
p1034
I-1
sS'std'
p1035
g53
(g55
S'\x00\x00\x00\x00\x00\x00\x00\x00'
tRp1036
sS'test_additional_data'
p1037
g58
(g59
tRp1038
sS'test_duration'
p1039
Fnan
sS'instance_results'
p1040
g63
(g64
(I0
tS'b'
tRp1041
(I1
(I1
tg54
(S'f8'
I0
I1
tRp1042
(I3
S'<'
NNNI-1
I-1
I0
tbI00
S'\x00\x00\x00\x00\x00\x00\x00\x00'
tbsS'test_std'
p1043
Fnan
sS'additional_data'
p1044
g58
(g59
tRp1045
I0
S'No result string returned. Please have a look at the runinstance output'
p1046
ssS'test_instance_durations'
p1047
g63
(g64
(I0
tS'b'
tRp1048
(I1
(I1
tg1042
I00
S'\x00\x00\x00\x00\x00\x00\xf8\x7f'
tbsS'params'
p1049
g74
((lp1050
(lp1051
S'C'
aS'23.0'
p1052
aa(lp1053
S'Sigma'
p1054
aS'3.91153710931'
p1055
aatRp1056
sS'result'
p1057
g53
(g55
S'\x00\x00\x00\x00\x00\x00\x00\x00'
tRp1058
sS'test_instance_status'
p1059
g63
(g64
(I0
tS'b'
tRp1060
(I1
(I1
tg54
(S'i8'
I0
I1
tRp1061
(I3
S'<'
NNNI-1
I-1
I0
tbI00
S'\x00\x00\x00\x00\x00\x00\x00\x00'
tbsS'duration'
p1062
g53
(g55
S'\xc6\xc3{\x0e,G\xa0?'
tRp1063
sS'test_status'
p1064
I0
sS'test_result'
p1065
Fnan
sS'test_instance_results'
p1066
g63
(g64
(I0
tS'b'
tRp1067
(I1
(I1
tg1042
I00
S'\x00\x00\x00\x00\x00\x00\xf8\x7f'
tbsS'instance_status'
p1068
g63
(g64
(I0
tS'b'
tRp1069
(I1
(I1
tg1061
I00
S'\xff\xff\xff\xff\xff\xff\xff\xff'
tbsS'instance_durations'
p1070
g63
(g64
(I0
tS'b'
tRp1071
(I1
(I1
tg1042
I00
S'\xc6\xc3{\x0e,G\xa0?'
tbsa(dp1072
S'status'
p1073
I-1
sS'std'
p1074
g53
(g55
S'\x00\x00\x00\x00\x00\x00\x00\x00'
tRp1075
sS'test_additional_data'
p1076
g58
(g59
tRp1077
sS'test_duration'
p1078
Fnan
sS'instance_results'
p1079
g63
(g64
(I0
tS'b'
tRp1080
(I1
(I1
tg54
(S'f8'
I0
I1
tRp1081
(I3
S'<'
NNNI-1
I-1
I0
tbI00
S'\x00\x00\x00\x00\x00\x00\x00\x00'
tbsS'test_std'
p1082
Fnan
sS'additional_data'
p1083
g58
(g59
tRp1084
I0
S'No result string returned. Please have a look at the runinstance output'
p1085
ssS'test_instance_durations'
p1086
g63
(g64
(I0
tS'b'
tRp1087
(I1
(I1
tg1081
I00
S'\x00\x00\x00\x00\x00\x00\xf8\x7f'
tbsS'params'
p1088
g74
((lp1089
(lp1090
S'C'
aS'15.0'
p1091
aa(lp1092
S'Sigma'
p1093
aS'8.86050199896'
p1094
aatRp1095
sS'result'
p1096
g53
(g55
S'\x00\x00\x00\x00\x00\x00\x00\x00'
tRp1097
sS'test_instance_status'
p1098
g63
(g64
(I0
tS'b'
tRp1099
(I1
(I1
tg54
(S'i8'
I0
I1
tRp1100
(I3
S'<'
NNNI-1
I-1
I0
tbI00
S'\x00\x00\x00\x00\x00\x00\x00\x00'
tbsS'duration'
p1101
g53
(g55
S"F|'f\xbd\x18\x9a?"
tRp1102
sS'test_status'
p1103
I0
sS'test_result'
p1104
Fnan
sS'test_instance_results'
p1105
g63
(g64
(I0
tS'b'
tRp1106
(I1
(I1
tg1081
I00
S'\x00\x00\x00\x00\x00\x00\xf8\x7f'
tbsS'instance_status'
p1107
g63
(g64
(I0
tS'b'
tRp1108
(I1
(I1
tg1100
I00
S'\xff\xff\xff\xff\xff\xff\xff\xff'
tbsS'instance_durations'
p1109
g63
(g64
(I0
tS'b'
tRp1110
(I1
(I1
tg1081
I00
S"F|'f\xbd\x18\x9a?"
tbsa(dp1111
S'status'
p1112
I-1
sS'std'
p1113
g53
(g55
S'\x00\x00\x00\x00\x00\x00\x00\x00'
tRp1114
sS'test_additional_data'
p1115
g58
(g59
tRp1116
sS'test_duration'
p1117
Fnan
sS'instance_results'
p1118
g63
(g64
(I0
tS'b'
tRp1119
(I1
(I1
tg54
(S'f8'
I0
I1
tRp1120
(I3
S'<'
NNNI-1
I-1
I0
tbI00
S'\x00\x00\x00\x00\x00\x00\x00\x00'
tbsS'test_std'
p1121
Fnan
sS'additional_data'
p1122
g58
(g59
tRp1123
I0
S'No result string returned. Please have a look at the runinstance output'
p1124
ssS'test_instance_durations'
p1125
g63
(g64
(I0
tS'b'
tRp1126
(I1
(I1
tg1120
I00
S'\x00\x00\x00\x00\x00\x00\xf8\x7f'
tbsS'params'
p1127
g74
((lp1128
(lp1129
S'C'
aS'9.0'
p1130
aa(lp1131
S'Sigma'
p1132
aS'5.32832918007'
p1133
aatRp1134
sS'result'
p1135
g53
(g55
S'\x00\x00\x00\x00\x00\x00\x00\x00'
tRp1136
sS'test_instance_status'
p1137
g63
(g64
(I0
tS'b'
tRp1138
(I1
(I1
tg54
(S'i8'
I0
I1
tRp1139
(I3
S'<'
NNNI-1
I-1
I0
tbI00
S'\x00\x00\x00\x00\x00\x00\x00\x00'
tbsS'duration'
p1140
g53
(g55
S'\xdb\x15\xfa`\x19\x1b\x9a?'
tRp1141
sS'test_status'
p1142
I0
sS'test_result'
p1143
Fnan
sS'test_instance_results'
p1144
g63
(g64
(I0
tS'b'
tRp1145
(I1
(I1
tg1120
I00
S'\x00\x00\x00\x00\x00\x00\xf8\x7f'
tbsS'instance_status'
p1146
g63
(g64
(I0
tS'b'
tRp1147
(I1
(I1
tg1139
I00
S'\xff\xff\xff\xff\xff\xff\xff\xff'
tbsS'instance_durations'
p1148
g63
(g64
(I0
tS'b'
tRp1149
(I1
(I1
tg1120
I00
S'\xdb\x15\xfa`\x19\x1b\x9a?'
tbsa(dp1150
S'status'
p1151
I-1
sS'std'
p1152
g53
(g55
S'\x00\x00\x00\x00\x00\x00\x00\x00'
tRp1153
sS'test_additional_data'
p1154
g58
(g59
tRp1155
sS'test_duration'
p1156
Fnan
sS'instance_results'
p1157
g63
(g64
(I0
tS'b'
tRp1158
(I1
(I1
tg54
(S'f8'
I0
I1
tRp1159
(I3
S'<'
NNNI-1
I-1
I0
tbI00
S'\x00\x00\x00\x00\x00\x00\x00\x00'
tbsS'test_std'
p1160
Fnan
sS'additional_data'
p1161
g58
(g59
tRp1162
I0
S'No result string returned. Please have a look at the runinstance output'
p1163
ssS'test_instance_durations'
p1164
g63
(g64
(I0
tS'b'
tRp1165
(I1
(I1
tg1159
I00
S'\x00\x00\x00\x00\x00\x00\xf8\x7f'
tbsS'params'
p1166
g74
((lp1167
(lp1168
S'C'
aS'21.0'
p1169
aa(lp1170
S'Sigma'
p1171
aS'5.95158823406'
p1172
aatRp1173
sS'result'
p1174
g53
(g55
S'\x00\x00\x00\x00\x00\x00\x00\x00'
tRp1175
sS'test_instance_status'
p1176
g63
(g64
(I0
tS'b'
tRp1177
(I1
(I1
tg54
(S'i8'
I0
I1
tRp1178
(I3
S'<'
NNNI-1
I-1
I0
tbI00
S'\x00\x00\x00\x00\x00\x00\x00\x00'
tbsS'duration'
p1179
g53
(g55
S'\xcc\xb5h\x01\xdaV\x93?'
tRp1180
sS'test_status'
p1181
I0
sS'test_result'
p1182
Fnan
sS'test_instance_results'
p1183
g63
(g64
(I0
tS'b'
tRp1184
(I1
(I1
tg1159
I00
S'\x00\x00\x00\x00\x00\x00\xf8\x7f'
tbsS'instance_status'
p1185
g63
(g64
(I0
tS'b'
tRp1186
(I1
(I1
tg1178
I00
S'\xff\xff\xff\xff\xff\xff\xff\xff'
tbsS'instance_durations'
p1187
g63
(g64
(I0
tS'b'
tRp1188
(I1
(I1
tg1159
I00
S'\xcc\xb5h\x01\xdaV\x93?'
tbsa(dp1189
S'status'
p1190
I-1
sS'std'
p1191
g53
(g55
S'\x00\x00\x00\x00\x00\x00\x00\x00'
tRp1192
sS'test_additional_data'
p1193
g58
(g59
tRp1194
sS'test_duration'
p1195
Fnan
sS'instance_results'
p1196
g63
(g64
(I0
tS'b'
tRp1197
(I1
(I1
tg54
(S'f8'
I0
I1
tRp1198
(I3
S'<'
NNNI-1
I-1
I0
tbI00
S'\x00\x00\x00\x00\x00\x00\x00\x00'
tbsS'test_std'
p1199
Fnan
sS'additional_data'
p1200
g58
(g59
tRp1201
I0
S'No result string returned. Please have a look at the runinstance output'
p1202
ssS'test_instance_durations'
p1203
g63
(g64
(I0
tS'b'
tRp1204
(I1
(I1
tg1198
I00
S'\x00\x00\x00\x00\x00\x00\xf8\x7f'
tbsS'params'
p1205
g74
((lp1206
(lp1207
S'C'
aS'16.0'
p1208
aa(lp1209
S'Sigma'
p1210
aS'12.9384800604'
p1211
aatRp1212
sS'result'
p1213
g53
(g55
S'\x00\x00\x00\x00\x00\x00\x00\x00'
tRp1214
sS'test_instance_status'
p1215
g63
(g64
(I0
tS'b'
tRp1216
(I1
(I1
tg54
(S'i8'
I0
I1
tRp1217
(I3
S'<'
NNNI-1
I-1
I0
tbI00
S'\x00\x00\x00\x00\x00\x00\x00\x00'
tbsS'duration'
p1218
g53
(g55
S'\xa2]\x85\x94\x9fT\x9b?'
tRp1219
sS'test_status'
p1220
I0
sS'test_result'
p1221
Fnan
sS'test_instance_results'
p1222
g63
(g64
(I0
tS'b'
tRp1223
(I1
(I1
tg1198
I00
S'\x00\x00\x00\x00\x00\x00\xf8\x7f'
tbsS'instance_status'
p1224
g63
(g64
(I0
tS'b'
tRp1225
(I1
(I1
tg1217
I00
S'\xff\xff\xff\xff\xff\xff\xff\xff'
tbsS'instance_durations'
p1226
g63
(g64
(I0
tS'b'
tRp1227
(I1
(I1
tg1198
I00
S'\xa2]\x85\x94\x9fT\x9b?'
tbsa(dp1228
S'status'
p1229
I-1
sS'std'
p1230
g53
(g55
S'\x00\x00\x00\x00\x00\x00\x00\x00'
tRp1231
sS'test_additional_data'
p1232
g58
(g59
tRp1233
sS'test_duration'
p1234
Fnan
sS'instance_results'
p1235
g63
(g64
(I0
tS'b'
tRp1236
(I1
(I1
tg54
(S'f8'
I0
I1
tRp1237
(I3
S'<'
NNNI-1
I-1
I0
tbI00
S'\x00\x00\x00\x00\x00\x00\x00\x00'
tbsS'test_std'
p1238
Fnan
sS'additional_data'
p1239
g58
(g59
tRp1240
I0
S'No result string returned. Please have a look at the runinstance output'
p1241
ssS'test_instance_durations'
p1242
g63
(g64
(I0
tS'b'
tRp1243
(I1
(I1
tg1237
I00
S'\x00\x00\x00\x00\x00\x00\xf8\x7f'
tbsS'params'
p1244
g74
((lp1245
(lp1246
S'C'
aS'3.0'
p1247
aa(lp1248
S'Sigma'
p1249
aS'5.95091406685'
p1250
aatRp1251
sS'result'
p1252
g53
(g55
S'\x00\x00\x00\x00\x00\x00\x00\x00'
tRp1253
sS'test_instance_status'
p1254
g63
(g64
(I0
tS'b'
tRp1255
(I1
(I1
tg54
(S'i8'
I0
I1
tRp1256
(I3
S'<'
NNNI-1
I-1
I0
tbI00
S'\x00\x00\x00\x00\x00\x00\x00\x00'
tbsS'duration'
p1257
g53
(g55
S'\xe8\xcc\x87\xb1\x96L\x97?'
tRp1258
sS'test_status'
p1259
I0
sS'test_result'
p1260
Fnan
sS'test_instance_results'
p1261
g63
(g64
(I0
tS'b'
tRp1262
(I1
(I1
tg1237
I00
S'\x00\x00\x00\x00\x00\x00\xf8\x7f'
tbsS'instance_status'
p1263
g63
(g64
(I0
tS'b'
tRp1264
(I1
(I1
tg1256
I00
S'\xff\xff\xff\xff\xff\xff\xff\xff'
tbsS'instance_durations'
p1265
g63
(g64
(I0
tS'b'
tRp1266
(I1
(I1
tg1237
I00
S'\xe8\xcc\x87\xb1\x96L\x97?'
tbsasS'total_wallclock_time'
p1267
F0.86511499999999997
sS'experiment_name'
p1268
S'hyperopt_august2013_mod'
p1269
sS'starttime'
p1270
(lp1271
F1481560573.0883811
as.