(dp1
S'cv_endtime'
p2
(lp3
F1481561173.879832
aF1481561179.5238631
aF1481561183.8945451
aF1481561188.258183
aF1481561192.6329329
aF1481561197.003413
aF1481561201.383086
asS'folds'
p4
I1
sS'cv_starttime'
p5
(lp6
F1481561162.019006
aF1481561174.3709719
aF1481561179.734694
aF1481561184.1022279
aF1481561188.4651151
aF1481561192.8437121
aF1481561197.212749
aF1481561201.591157
asS'endtime'
p7
(lp8
sS'optimizer'
p9
S'/home/elena/thesis_workspace/test_HPOlib/HPOlib/optimizers/tpe/hyperopt_august2013_mod'
p10
sS'optimizer_time'
p11
(lp12
sS'instance_order'
p13
(lp14
(I0
I0
tp15
a(I1
I0
tp16
a(I2
I0
tp17
a(I3
I0
tp18
a(I4
I0
tp19
a(I5
I0
tp20
a(I6
I0
tp21
a(I7
I0
tp22
asS'max_wallclock_time'
p23
S''
sS'title'
p24
NsS'trials'
p25
(lp26
(dp27
S'status'
p28
I3
sS'std'
p29
cnumpy.core.multiarray
scalar
p30
(cnumpy
dtype
p31
(S'f8'
I0
I1
tRp32
(I3
S'<'
NNNI-1
I-1
I0
tbS'\x00\x00\x00\x00\x00\x00\x00\x00'
tRp33
sS'test_additional_data'
p34
ccollections
defaultdict
p35
(c__builtin__
str
p36
tRp37
sS'test_duration'
p38
Fnan
sS'instance_results'
p39
cnumpy.core.multiarray
_reconstruct
p40
(cnumpy
ndarray
p41
(I0
tS'b'
tRp42
(I1
(I1
tg31
(S'f8'
I0
I1
tRp43
(I3
S'<'
NNNI-1
I-1
I0
tbI00
S'\x0b\xefr\x11\xdf\x89\xbd?'
tbsS'test_std'
p44
Fnan
sS'additional_data'
p45
g35
(g36
tRp46
I0
S'../benchmark_svm.py'
p47
ssS'test_instance_durations'
p48
g40
(g41
(I0
tS'b'
tRp49
(I1
(I1
tg43
I00
S'\x00\x00\x00\x00\x00\x00\xf8\x7f'
tbsS'params'
p50
ccollections
OrderedDict
p51
((lp52
(lp53
S'C'
aS'17.0'
p54
aa(lp55
S'Sigma'
p56
aS'5.42128606113'
p57
aatRp58
sS'result'
p59
g30
(g32
S'\x0b\xefr\x11\xdf\x89\xbd?'
tRp60
sS'test_instance_status'
p61
g40
(g41
(I0
tS'b'
tRp62
(I1
(I1
tg31
(S'i8'
I0
I1
tRp63
(I3
S'<'
NNNI-1
I-1
I0
tbI00
S'\x00\x00\x00\x00\x00\x00\x00\x00'
tbsS'duration'
p64
g30
(g32
S"\x92\\\xfeC\xfaM'@"
tRp65
sS'test_status'
p66
I0
sS'test_result'
p67
Fnan
sS'test_instance_results'
p68
g40
(g41
(I0
tS'b'
tRp69
(I1
(I1
tg43
I00
S'\x00\x00\x00\x00\x00\x00\xf8\x7f'
tbsS'instance_status'
p70
g40
(g41
(I0
tS'b'
tRp71
(I1
(I1
tg63
I00
S'\x03\x00\x00\x00\x00\x00\x00\x00'
tbsS'instance_durations'
p72
g40
(g41
(I0
tS'b'
tRp73
(I1
(I1
tg43
I00
S"\x92\\\xfeC\xfaM'@"
tbsa(dp74
S'status'
p75
I3
sS'std'
p76
g30
(g32
S'\x00\x00\x00\x00\x00\x00\x00\x00'
tRp77
sS'test_additional_data'
p78
g35
(g36
tRp79
sS'test_duration'
p80
Fnan
sS'instance_results'
p81
g40
(g41
(I0
tS'b'
tRp82
(I1
(I1
tg31
(S'f8'
I0
I1
tRp83
(I3
S'<'
NNNI-1
I-1
I0
tbI00
S'\x0b\xefr\x11\xdf\x89\xbd?'
tbsS'test_std'
p84
Fnan
sS'additional_data'
p85
g35
(g36
tRp86
I0
S'../benchmark_svm.py'
p87
ssS'test_instance_durations'
p88
g40
(g41
(I0
tS'b'
tRp89
(I1
(I1
tg83
I00
S'\x00\x00\x00\x00\x00\x00\xf8\x7f'
tbsS'params'
p90
g51
((lp91
(lp92
S'C'
aS'1.0'
p93
aa(lp94
S'Sigma'
p95
aS'5.66793372785'
p96
aatRp97
sS'result'
p98
g30
(g32
S'\x0b\xefr\x11\xdf\x89\xbd?'
tRp99
sS'test_instance_status'
p100
g40
(g41
(I0
tS'b'
tRp101
(I1
(I1
tg31
(S'i8'
I0
I1
tRp102
(I3
S'<'
NNNI-1
I-1
I0
tbI00
S'\x00\x00\x00\x00\x00\x00\x00\x00'
tbsS'duration'
p103
g30
(g32
S'\x83\xfa\x969]\xb6\x13@'
tRp104
sS'test_status'
p105
I0
sS'test_result'
p106
Fnan
sS'test_instance_results'
p107
g40
(g41
(I0
tS'b'
tRp108
(I1
(I1
tg83
I00
S'\x00\x00\x00\x00\x00\x00\xf8\x7f'
tbsS'instance_status'
p109
g40
(g41
(I0
tS'b'
tRp110
(I1
(I1
tg102
I00
S'\x03\x00\x00\x00\x00\x00\x00\x00'
tbsS'instance_durations'
p111
g40
(g41
(I0
tS'b'
tRp112
(I1
(I1
tg83
I00
S'\x83\xfa\x969]\xb6\x13@'
tbsa(dp113
S'status'
p114
I3
sS'std'
p115
g30
(g32
S'\x00\x00\x00\x00\x00\x00\x00\x00'
tRp116
sS'test_additional_data'
p117
g35
(g36
tRp118
sS'test_duration'
p119
Fnan
sS'instance_results'
p120
g40
(g41
(I0
tS'b'
tRp121
(I1
(I1
tg31
(S'f8'
I0
I1
tRp122
(I3
S'<'
NNNI-1
I-1
I0
tbI00
S'\x0b\xefr\x11\xdf\x89\xbd?'
tbsS'test_std'
p123
Fnan
sS'additional_data'
p124
g35
(g36
tRp125
I0
S'../benchmark_svm.py'
p126
ssS'test_instance_durations'
p127
g40
(g41
(I0
tS'b'
tRp128
(I1
(I1
tg122
I00
S'\x00\x00\x00\x00\x00\x00\xf8\x7f'
tbsS'params'
p129
g51
((lp130
(lp131
S'C'
aS'17.0'
p132
aa(lp133
S'Sigma'
p134
aS'7.16037273347'
p135
aatRp136
sS'result'
p137
g30
(g32
S'\x0b\xefr\x11\xdf\x89\xbd?'
tRp138
sS'test_instance_status'
p139
g40
(g41
(I0
tS'b'
tRp140
(I1
(I1
tg31
(S'i8'
I0
I1
tRp141
(I3
S'<'
NNNI-1
I-1
I0
tbI00
S'\x00\x00\x00\x00\x00\x00\x00\x00'
tbsS'duration'
p142
g30
(g32
S'\x054\x116<\x1d\x10@'
tRp143
sS'test_status'
p144
I0
sS'test_result'
p145
Fnan
sS'test_instance_results'
p146
g40
(g41
(I0
tS'b'
tRp147
(I1
(I1
tg122
I00
S'\x00\x00\x00\x00\x00\x00\xf8\x7f'
tbsS'instance_status'
p148
g40
(g41
(I0
tS'b'
tRp149
(I1
(I1
tg141
I00
S'\x03\x00\x00\x00\x00\x00\x00\x00'
tbsS'instance_durations'
p150
g40
(g41
(I0
tS'b'
tRp151
(I1
(I1
tg122
I00
S'\x054\x116<\x1d\x10@'
tbsa(dp152
S'status'
p153
I3
sS'std'
p154
g30
(g32
S'\x00\x00\x00\x00\x00\x00\x00\x00'
tRp155
sS'test_additional_data'
p156
g35
(g36
tRp157
sS'test_duration'
p158
Fnan
sS'instance_results'
p159
g40
(g41
(I0
tS'b'
tRp160
(I1
(I1
tg31
(S'f8'
I0
I1
tRp161
(I3
S'<'
NNNI-1
I-1
I0
tbI00
S'\x0b\xefr\x11\xdf\x89\xbd?'
tbsS'test_std'
p162
Fnan
sS'additional_data'
p163
g35
(g36
tRp164
I0
S'../benchmark_svm.py'
p165
ssS'test_instance_durations'
p166
g40
(g41
(I0
tS'b'
tRp167
(I1
(I1
tg161
I00
S'\x00\x00\x00\x00\x00\x00\xf8\x7f'
tbsS'params'
p168
g51
((lp169
(lp170
S'C'
aS'13.0'
p171
aa(lp172
S'Sigma'
p173
aS'12.5713879072'
p174
aatRp175
sS'result'
p176
g30
(g32
S'\x0b\xefr\x11\xdf\x89\xbd?'
tRp177
sS'test_instance_status'
p178
g40
(g41
(I0
tS'b'
tRp179
(I1
(I1
tg31
(S'i8'
I0
I1
tRp180
(I3
S'<'
NNNI-1
I-1
I0
tbI00
S'\x00\x00\x00\x00\x00\x00\x00\x00'
tbsS'duration'
p181
g30
(g32
S'\x05\xc0x\x06\r\x1d\x10@'
tRp182
sS'test_status'
p183
I0
sS'test_result'
p184
Fnan
sS'test_instance_results'
p185
g40
(g41
(I0
tS'b'
tRp186
(I1
(I1
tg161
I00
S'\x00\x00\x00\x00\x00\x00\xf8\x7f'
tbsS'instance_status'
p187
g40
(g41
(I0
tS'b'
tRp188
(I1
(I1
tg180
I00
S'\x03\x00\x00\x00\x00\x00\x00\x00'
tbsS'instance_durations'
p189
g40
(g41
(I0
tS'b'
tRp190
(I1
(I1
tg161
I00
S'\x05\xc0x\x06\r\x1d\x10@'
tbsa(dp191
S'status'
p192
I3
sS'std'
p193
g30
(g32
S'\x00\x00\x00\x00\x00\x00\x00\x00'
tRp194
sS'test_additional_data'
p195
g35
(g36
tRp196
sS'test_duration'
p197
Fnan
sS'instance_results'
p198
g40
(g41
(I0
tS'b'
tRp199
(I1
(I1
tg31
(S'f8'
I0
I1
tRp200
(I3
S'<'
NNNI-1
I-1
I0
tbI00
S'\x0b\xefr\x11\xdf\x89\xbd?'
tbsS'test_std'
p201
Fnan
sS'additional_data'
p202
g35
(g36
tRp203
I0
S'../benchmark_svm.py'
p204
ssS'test_instance_durations'
p205
g40
(g41
(I0
tS'b'
tRp206
(I1
(I1
tg200
I00
S'\x00\x00\x00\x00\x00\x00\xf8\x7f'
tbsS'params'
p207
g51
((lp208
(lp209
S'C'
aS'21.0'
p210
aa(lp211
S'Sigma'
p212
aS'2.88591122417'
p213
aatRp214
sS'result'
p215
g30
(g32
S'\x0b\xefr\x11\xdf\x89\xbd?'
tRp216
sS'test_instance_status'
p217
g40
(g41
(I0
tS'b'
tRp218
(I1
(I1
tg31
(S'i8'
I0
I1
tRp219
(I3
S'<'
NNNI-1
I-1
I0
tbI00
S'\x00\x00\x00\x00\x00\x00\x00\x00'
tbsS'duration'
p220
g30
(g32
S'!\xcdX4\x9d\x1d\x10@'
tRp221
sS'test_status'
p222
I0
sS'test_result'
p223
Fnan
sS'test_instance_results'
p224
g40
(g41
(I0
tS'b'
tRp225
(I1
(I1
tg200
I00
S'\x00\x00\x00\x00\x00\x00\xf8\x7f'
tbsS'instance_status'
p226
g40
(g41
(I0
tS'b'
tRp227
(I1
(I1
tg219
I00
S'\x03\x00\x00\x00\x00\x00\x00\x00'
tbsS'instance_durations'
p228
g40
(g41
(I0
tS'b'
tRp229
(I1
(I1
tg200
I00
S'!\xcdX4\x9d\x1d\x10@'
tbsa(dp230
S'status'
p231
I3
sS'std'
p232
g30
(g32
S'\x00\x00\x00\x00\x00\x00\x00\x00'
tRp233
sS'test_additional_data'
p234
g35
(g36
tRp235
sS'test_duration'
p236
Fnan
sS'instance_results'
p237
g40
(g41
(I0
tS'b'
tRp238
(I1
(I1
tg31
(S'f8'
I0
I1
tRp239
(I3
S'<'
NNNI-1
I-1
I0
tbI00
S'\x0b\xefr\x11\xdf\x89\xbd?'
tbsS'test_std'
p240
Fnan
sS'additional_data'
p241
g35
(g36
tRp242
I0
S'../benchmark_svm.py'
p243
ssS'test_instance_durations'
p244
g40
(g41
(I0
tS'b'
tRp245
(I1
(I1
tg239
I00
S'\x00\x00\x00\x00\x00\x00\xf8\x7f'
tbsS'params'
p246
g51
((lp247
(lp248
S'C'
aS'8.0'
p249
aa(lp250
S'Sigma'
p251
aS'11.6071819687'
p252
aatRp253
sS'result'
p254
g30
(g32
S'\x0b\xefr\x11\xdf\x89\xbd?'
tRp255
sS'test_instance_status'
p256
g40
(g41
(I0
tS'b'
tRp257
(I1
(I1
tg31
(S'i8'
I0
I1
tRp258
(I3
S'<'
NNNI-1
I-1
I0
tbI00
S'\x00\x00\x00\x00\x00\x00\x00\x00'
tbsS'duration'
p259
g30
(g32
S'9\xee\x94\x0e\xd6\x1f\x10@'
tRp260
sS'test_status'
p261
I0
sS'test_result'
p262
Fnan
sS'test_instance_results'
p263
g40
(g41
(I0
tS'b'
tRp264
(I1
(I1
tg239
I00
S'\x00\x00\x00\x00\x00\x00\xf8\x7f'
tbsS'instance_status'
p265
g40
(g41
(I0
tS'b'
tRp266
(I1
(I1
tg258
I00
S'\x03\x00\x00\x00\x00\x00\x00\x00'
tbsS'instance_durations'
p267
g40
(g41
(I0
tS'b'
tRp268
(I1
(I1
tg239
I00
S'9\xee\x94\x0e\xd6\x1f\x10@'
tbsa(dp269
S'status'
p270
I3
sS'std'
p271
g30
(g32
S'\x00\x00\x00\x00\x00\x00\x00\x00'
tRp272
sS'test_additional_data'
p273
g35
(g36
tRp274
sS'test_duration'
p275
Fnan
sS'instance_results'
p276
g40
(g41
(I0
tS'b'
tRp277
(I1
(I1
tg31
(S'f8'
I0
I1
tRp278
(I3
S'<'
NNNI-1
I-1
I0
tbI00
S'\x0b\xefr\x11\xdf\x89\xbd?'
tbsS'test_std'
p279
Fnan
sS'additional_data'
p280
g35
(g36
tRp281
I0
S'../benchmark_svm.py'
p282
ssS'test_instance_durations'
p283
g40
(g41
(I0
tS'b'
tRp284
(I1
(I1
tg278
I00
S'\x00\x00\x00\x00\x00\x00\xf8\x7f'
tbsS'params'
p285
g51
((lp286
(lp287
S'C'
aS'19.0'
p288
aa(lp289
S'Sigma'
p290
aS'0.992007761861'
p291
aatRp292
sS'result'
p293
g30
(g32
S'\x0b\xefr\x11\xdf\x89\xbd?'
tRp294
sS'test_instance_status'
p295
g40
(g41
(I0
tS'b'
tRp296
(I1
(I1
tg31
(S'i8'
I0
I1
tRp297
(I3
S'<'
NNNI-1
I-1
I0
tbI00
S'\x00\x00\x00\x00\x00\x00\x00\x00'
tbsS'duration'
p298
g30
(g32
S'\x19\x1c%\xaf\xce1\x10@'
tRp299
sS'test_status'
p300
I0
sS'test_result'
p301
Fnan
sS'test_instance_results'
p302
g40
(g41
(I0
tS'b'
tRp303
(I1
(I1
tg278
I00
S'\x00\x00\x00\x00\x00\x00\xf8\x7f'
tbsS'instance_status'
p304
g40
(g41
(I0
tS'b'
tRp305
(I1
(I1
tg297
I00
S'\x03\x00\x00\x00\x00\x00\x00\x00'
tbsS'instance_durations'
p306
g40
(g41
(I0
tS'b'
tRp307
(I1
(I1
tg278
I00
S'\x19\x1c%\xaf\xce1\x10@'
tbsa(dp308
S'status'
p309
I2
sS'std'
p310
Fnan
sS'test_additional_data'
p311
g35
(g36
tRp312
sS'test_duration'
p313
Fnan
sS'instance_results'
p314
g40
(g41
(I0
tS'b'
tRp315
(I1
(I1
tg32
I00
S'\x00\x00\x00\x00\x00\x00\xf8\x7f'
tbsS'test_std'
p316
Fnan
sS'test_instance_durations'
p317
g40
(g41
(I0
tS'b'
tRp318
(I1
(I1
tg32
I00
S'\x00\x00\x00\x00\x00\x00\xf8\x7f'
tbsS'additional_data'
p319
g35
(g36
tRp320
sS'test_instance_status'
p321
g40
(g41
(I0
tS'b'
tRp322
(I1
(I1
tg31
(S'i8'
I0
I1
tRp323
(I3
S'<'
NNNI-1
I-1
I0
tbI00
S'\x00\x00\x00\x00\x00\x00\x00\x00'
tbsS'params'
p324
g51
((lp325
(lp326
S'C'
aS'23.0'
p327
aa(lp328
S'Sigma'
p329
aS'11.3545822363'
p330
aatRp331
sS'result'
p332
Fnan
sS'duration'
p333
Fnan
sS'test_status'
p334
I0
sS'test_result'
p335
Fnan
sS'test_instance_results'
p336
g40
(g41
(I0
tS'b'
tRp337
(I1
(I1
tg32
I00
S'\x00\x00\x00\x00\x00\x00\xf8\x7f'
tbsS'instance_status'
p338
g40
(g41
(I0
tS'b'
tRp339
(I1
(I1
tg323
I00
S'\x02\x00\x00\x00\x00\x00\x00\x00'
tbsS'instance_durations'
p340
g40
(g41
(I0
tS'b'
tRp341
(I1
(I1
tg32
I00
S'\x00\x00\x00\x00\x00\x00\xf8\x7f'
tbsasS'total_wallclock_time'
p342
F36.745959999999997
sS'experiment_name'
p343
S'hyperopt_august2013_mod'
p344
sS'starttime'
p345
(lp346
F1481561160.6030829
as.