(dp1
S'cv_endtime'
p2
(lp3
F1481565107.551162
aF1481565107.9517641
aF1481565108.3455119
aF1481565108.738168
aF1481565109.1439149
aF1481565109.5408959
aF1481565109.8849189
aF1481565110.2618401
aF1481565110.6115911
aF1481565110.9674821
aF1481565111.27349
aF1481565111.667223
aF1481565112.0234871
aF1481565112.4313331
aF1481565112.771637
aF1481565113.162251
aF1481565113.507726
aF1481565113.8869269
aF1481565114.3011329
aF1481565114.760463
aF1481565115.1679101
aF1481565115.5292089
aF1481565115.9725599
asS'folds'
p4
I1
sS'cv_starttime'
p5
(lp6
F1481565107.429533
aF1481565107.7882569
aF1481565108.1768689
aF1481565108.5728331
aF1481565108.9681561
aF1481565109.362515
aF1481565109.786725
aF1481565110.1197741
aF1481565110.500093
aF1481565110.822325
aF1481565111.1773701
aF1481565111.5130999
aF1481565111.8980939
aF1481565112.2434559
aF1481565112.6745551
aF1481565113.0079141
aF1481565113.386909
aF1481565113.710772
aF1481565114.122468
aF1481565114.527808
aF1481565115.0071809
aF1481565115.3889091
aF1481565115.74791
asS'endtime'
p7
(lp8
sS'optimizer'
p9
S'/home/elena/R_ws/automl/HPOlib/optimizers/tpe/hyperopt_august2013_mod'
p10
sS'optimizer_time'
p11
(lp12
sS'instance_order'
p13
(lp14
(I0
I0
tp15
a(I1
I0
tp16
a(I2
I0
tp17
a(I3
I0
tp18
a(I4
I0
tp19
a(I5
I0
tp20
a(I6
I0
tp21
a(I7
I0
tp22
a(I8
I0
tp23
a(I9
I0
tp24
a(I10
I0
tp25
a(I11
I0
tp26
a(I12
I0
tp27
a(I13
I0
tp28
a(I14
I0
tp29
a(I15
I0
tp30
a(I16
I0
tp31
a(I17
I0
tp32
a(I18
I0
tp33
a(I19
I0
tp34
a(I20
I0
tp35
a(I21
I0
tp36
a(I22
I0
tp37
asS'max_wallclock_time'
p38
S''
sS'title'
p39
NsS'trials'
p40
(lp41
(dp42
S'status'
p43
I-1
sS'std'
p44
cnumpy.core.multiarray
scalar
p45
(cnumpy
dtype
p46
(S'f8'
I0
I1
tRp47
(I3
S'<'
NNNI-1
I-1
I0
tbS'\x00\x00\x00\x00\x00\x00\x00\x00'
tRp48
sS'test_additional_data'
p49
ccollections
defaultdict
p50
(c__builtin__
str
p51
tRp52
sS'test_duration'
p53
Fnan
sS'instance_results'
p54
cnumpy.core.multiarray
_reconstruct
p55
(cnumpy
ndarray
p56
(I0
tS'b'
tRp57
(I1
(I1
tg46
(S'f8'
I0
I1
tRp58
(I3
S'<'
NNNI-1
I-1
I0
tbI00
S'\x00\x00\x00\x00\x00\x00\x00\x00'
tbsS'test_std'
p59
Fnan
sS'additional_data'
p60
g50
(g51
tRp61
I0
S'No result string returned. Please have a look at the runinstance output'
p62
ssS'test_instance_durations'
p63
g55
(g56
(I0
tS'b'
tRp64
(I1
(I1
tg58
I00
S'\x00\x00\x00\x00\x00\x00\xf8\x7f'
tbsS'params'
p65
ccollections
OrderedDict
p66
((lp67
(lp68
S'C'
aS'17.0'
p69
aa(lp70
S'Sigma'
p71
aS'5.42128606113'
p72
aatRp73
sS'result'
p74
g45
(g47
S'\x00\x00\x00\x00\x00\x00\x00\x00'
tRp75
sS'test_instance_status'
p76
g55
(g56
(I0
tS'b'
tRp77
(I1
(I1
tg46
(S'i8'
I0
I1
tRp78
(I3
S'<'
NNNI-1
I-1
I0
tbI00
S'\x00\x00\x00\x00\x00\x00\x00\x00'
tbsS'duration'
p79
g45
(g47
S'Wl\xdd\x17\xe17\x97?'
tRp80
sS'test_status'
p81
I0
sS'test_result'
p82
Fnan
sS'test_instance_results'
p83
g55
(g56
(I0
tS'b'
tRp84
(I1
(I1
tg58
I00
S'\x00\x00\x00\x00\x00\x00\xf8\x7f'
tbsS'instance_status'
p85
g55
(g56
(I0
tS'b'
tRp86
(I1
(I1
tg78
I00
S'\xff\xff\xff\xff\xff\xff\xff\xff'
tbsS'instance_durations'
p87
g55
(g56
(I0
tS'b'
tRp88
(I1
(I1
tg58
I00
S'Wl\xdd\x17\xe17\x97?'
tbsa(dp89
S'status'
p90
I-1
sS'std'
p91
g45
(g47
S'\x00\x00\x00\x00\x00\x00\x00\x00'
tRp92
sS'test_additional_data'
p93
g50
(g51
tRp94
sS'test_duration'
p95
Fnan
sS'instance_results'
p96
g55
(g56
(I0
tS'b'
tRp97
(I1
(I1
tg46
(S'f8'
I0
I1
tRp98
(I3
S'<'
NNNI-1
I-1
I0
tbI00
S'\x00\x00\x00\x00\x00\x00\x00\x00'
tbsS'test_std'
p99
Fnan
sS'additional_data'
p100
g50
(g51
tRp101
I0
S'No result string returned. Please have a look at the runinstance output'
p102
ssS'test_instance_durations'
p103
g55
(g56
(I0
tS'b'
tRp104
(I1
(I1
tg98
I00
S'\x00\x00\x00\x00\x00\x00\xf8\x7f'
tbsS'params'
p105
g66
((lp106
(lp107
S'C'
aS'1.0'
p108
aa(lp109
S'Sigma'
p110
aS'5.66793372785'
p111
aatRp112
sS'result'
p113
g45
(g47
S'\x00\x00\x00\x00\x00\x00\x00\x00'
tRp114
sS'test_instance_status'
p115
g55
(g56
(I0
tS'b'
tRp116
(I1
(I1
tg46
(S'i8'
I0
I1
tRp117
(I3
S'<'
NNNI-1
I-1
I0
tbI00
S'\x00\x00\x00\x00\x00\x00\x00\x00'
tbsS'duration'
p118
g45
(g47
S'\xa0\xe7\xaa\xd4G;\xa5?'
tRp119
sS'test_status'
p120
I0
sS'test_result'
p121
Fnan
sS'test_instance_results'
p122
g55
(g56
(I0
tS'b'
tRp123
(I1
(I1
tg98
I00
S'\x00\x00\x00\x00\x00\x00\xf8\x7f'
tbsS'instance_status'
p124
g55
(g56
(I0
tS'b'
tRp125
(I1
(I1
tg117
I00
S'\xff\xff\xff\xff\xff\xff\xff\xff'
tbsS'instance_durations'
p126
g55
(g56
(I0
tS'b'
tRp127
(I1
(I1
tg98
I00
S'\xa0\xe7\xaa\xd4G;\xa5?'
tbsa(dp128
S'status'
p129
I-1
sS'std'
p130
g45
(g47
S'\x00\x00\x00\x00\x00\x00\x00\x00'
tRp131
sS'test_additional_data'
p132
g50
(g51
tRp133
sS'test_duration'
p134
Fnan
sS'instance_results'
p135
g55
(g56
(I0
tS'b'
tRp136
(I1
(I1
tg46
(S'f8'
I0
I1
tRp137
(I3
S'<'
NNNI-1
I-1
I0
tbI00
S'\x00\x00\x00\x00\x00\x00\x00\x00'
tbsS'test_std'
p138
Fnan
sS'additional_data'
p139
g50
(g51
tRp140
I0
S'No result string returned. Please have a look at the runinstance output'
p141
ssS'test_instance_durations'
p142
g55
(g56
(I0
tS'b'
tRp143
(I1
(I1
tg137
I00
S'\x00\x00\x00\x00\x00\x00\xf8\x7f'
tbsS'params'
p144
g66
((lp145
(lp146
S'C'
aS'17.0'
p147
aa(lp148
S'Sigma'
p149
aS'7.16037273347'
p150
aatRp151
sS'result'
p152
g45
(g47
S'\x00\x00\x00\x00\x00\x00\x00\x00'
tRp153
sS'test_instance_status'
p154
g55
(g56
(I0
tS'b'
tRp155
(I1
(I1
tg46
(S'i8'
I0
I1
tRp156
(I3
S'<'
NNNI-1
I-1
I0
tbI00
S'\x00\x00\x00\x00\x00\x00\x00\x00'
tbsS'duration'
p157
g45
(g47
S'\x1fp\x13\xa4\x08_\x96?'
tRp158
sS'test_status'
p159
I0
sS'test_result'
p160
Fnan
sS'test_instance_results'
p161
g55
(g56
(I0
tS'b'
tRp162
(I1
(I1
tg137
I00
S'\x00\x00\x00\x00\x00\x00\xf8\x7f'
tbsS'instance_status'
p163
g55
(g56
(I0
tS'b'
tRp164
(I1
(I1
tg156
I00
S'\xff\xff\xff\xff\xff\xff\xff\xff'
tbsS'instance_durations'
p165
g55
(g56
(I0
tS'b'
tRp166
(I1
(I1
tg137
I00
S'\x1fp\x13\xa4\x08_\x96?'
tbsa(dp167
S'status'
p168
I-1
sS'std'
p169
g45
(g47
S'\x00\x00\x00\x00\x00\x00\x00\x00'
tRp170
sS'test_additional_data'
p171
g50
(g51
tRp172
sS'test_duration'
p173
Fnan
sS'instance_results'
p174
g55
(g56
(I0
tS'b'
tRp175
(I1
(I1
tg46
(S'f8'
I0
I1
tRp176
(I3
S'<'
NNNI-1
I-1
I0
tbI00
S'\x00\x00\x00\x00\x00\x00\x00\x00'
tbsS'test_std'
p177
Fnan
sS'additional_data'
p178
g50
(g51
tRp179
I0
S'No result string returned. Please have a look at the runinstance output'
p180
ssS'test_instance_durations'
p181
g55
(g56
(I0
tS'b'
tRp182
(I1
(I1
tg176
I00
S'\x00\x00\x00\x00\x00\x00\xf8\x7f'
tbsS'params'
p183
g66
((lp184
(lp185
S'C'
aS'13.0'
p186
aa(lp187
S'Sigma'
p188
aS'12.5713879072'
p189
aatRp190
sS'result'
p191
g45
(g47
S'\x00\x00\x00\x00\x00\x00\x00\x00'
tRp192
sS'test_instance_status'
p193
g55
(g56
(I0
tS'b'
tRp194
(I1
(I1
tg46
(S'i8'
I0
I1
tRp195
(I3
S'<'
NNNI-1
I-1
I0
tbI00
S'\x00\x00\x00\x00\x00\x00\x00\x00'
tbsS'duration'
p196
g45
(g47
S'\xee\xf9\xab\x11\x0b\xc6\x9a?'
tRp197
sS'test_status'
p198
I0
sS'test_result'
p199
Fnan
sS'test_instance_results'
p200
g55
(g56
(I0
tS'b'
tRp201
(I1
(I1
tg176
I00
S'\x00\x00\x00\x00\x00\x00\xf8\x7f'
tbsS'instance_status'
p202
g55
(g56
(I0
tS'b'
tRp203
(I1
(I1
tg195
I00
S'\xff\xff\xff\xff\xff\xff\xff\xff'
tbsS'instance_durations'
p204
g55
(g56
(I0
tS'b'
tRp205
(I1
(I1
tg176
I00
S'\xee\xf9\xab\x11\x0b\xc6\x9a?'
tbsa(dp206
S'status'
p207
I-1
sS'std'
p208
g45
(g47
S'\x00\x00\x00\x00\x00\x00\x00\x00'
tRp209
sS'test_additional_data'
p210
g50
(g51
tRp211
sS'test_duration'
p212
Fnan
sS'instance_results'
p213
g55
(g56
(I0
tS'b'
tRp214
(I1
(I1
tg46
(S'f8'
I0
I1
tRp215
(I3
S'<'
NNNI-1
I-1
I0
tbI00
S'\x00\x00\x00\x00\x00\x00\x00\x00'
tbsS'test_std'
p216
Fnan
sS'additional_data'
p217
g50
(g51
tRp218
I0
S'No result string returned. Please have a look at the runinstance output'
p219
ssS'test_instance_durations'
p220
g55
(g56
(I0
tS'b'
tRp221
(I1
(I1
tg215
I00
S'\x00\x00\x00\x00\x00\x00\xf8\x7f'
tbsS'params'
p222
g66
((lp223
(lp224
S'C'
aS'21.0'
p225
aa(lp226
S'Sigma'
p227
aS'2.88591122417'
p228
aatRp229
sS'result'
p230
g45
(g47
S'\x00\x00\x00\x00\x00\x00\x00\x00'
tRp231
sS'test_instance_status'
p232
g55
(g56
(I0
tS'b'
tRp233
(I1
(I1
tg46
(S'i8'
I0
I1
tRp234
(I3
S'<'
NNNI-1
I-1
I0
tbI00
S'\x00\x00\x00\x00\x00\x00\x00\x00'
tbsS'duration'
p235
g45
(g47
S'\xc6\xb9\x97ErC\x95?'
tRp236
sS'test_status'
p237
I0
sS'test_result'
p238
Fnan
sS'test_instance_results'
p239
g55
(g56
(I0
tS'b'
tRp240
(I1
(I1
tg215
I00
S'\x00\x00\x00\x00\x00\x00\xf8\x7f'
tbsS'instance_status'
p241
g55
(g56
(I0
tS'b'
tRp242
(I1
(I1
tg234
I00
S'\xff\xff\xff\xff\xff\xff\xff\xff'
tbsS'instance_durations'
p243
g55
(g56
(I0
tS'b'
tRp244
(I1
(I1
tg215
I00
S'\xc6\xb9\x97ErC\x95?'
tbsa(dp245
S'status'
p246
I-1
sS'std'
p247
g45
(g47
S'\x00\x00\x00\x00\x00\x00\x00\x00'
tRp248
sS'test_additional_data'
p249
g50
(g51
tRp250
sS'test_duration'
p251
Fnan
sS'instance_results'
p252
g55
(g56
(I0
tS'b'
tRp253
(I1
(I1
tg46
(S'f8'
I0
I1
tRp254
(I3
S'<'
NNNI-1
I-1
I0
tbI00
S'\x00\x00\x00\x00\x00\x00\x00\x00'
tbsS'test_std'
p255
Fnan
sS'additional_data'
p256
g50
(g51
tRp257
I0
S'No result string returned. Please have a look at the runinstance output'
p258
ssS'test_instance_durations'
p259
g55
(g56
(I0
tS'b'
tRp260
(I1
(I1
tg254
I00
S'\x00\x00\x00\x00\x00\x00\xf8\x7f'
tbsS'params'
p261
g66
((lp262
(lp263
S'C'
aS'8.0'
p264
aa(lp265
S'Sigma'
p266
aS'11.6071819687'
p267
aatRp268
sS'result'
p269
g45
(g47
S'\x00\x00\x00\x00\x00\x00\x00\x00'
tRp270
sS'test_instance_status'
p271
g55
(g56
(I0
tS'b'
tRp272
(I1
(I1
tg46
(S'i8'
I0
I1
tRp273
(I3
S'<'
NNNI-1
I-1
I0
tbI00
S'\x00\x00\x00\x00\x00\x00\x00\x00'
tbsS'duration'
p274
g45
(g47
S'\x19E\xc5\xee\xf1\xf8\x94?'
tRp275
sS'test_status'
p276
I0
sS'test_result'
p277
Fnan
sS'test_instance_results'
p278
g55
(g56
(I0
tS'b'
tRp279
(I1
(I1
tg254
I00
S'\x00\x00\x00\x00\x00\x00\xf8\x7f'
tbsS'instance_status'
p280
g55
(g56
(I0
tS'b'
tRp281
(I1
(I1
tg273
I00
S'\xff\xff\xff\xff\xff\xff\xff\xff'
tbsS'instance_durations'
p282
g55
(g56
(I0
tS'b'
tRp283
(I1
(I1
tg254
I00
S'\x19E\xc5\xee\xf1\xf8\x94?'
tbsa(dp284
S'status'
p285
I-1
sS'std'
p286
g45
(g47
S'\x00\x00\x00\x00\x00\x00\x00\x00'
tRp287
sS'test_additional_data'
p288
g50
(g51
tRp289
sS'test_duration'
p290
Fnan
sS'instance_results'
p291
g55
(g56
(I0
tS'b'
tRp292
(I1
(I1
tg46
(S'f8'
I0
I1
tRp293
(I3
S'<'
NNNI-1
I-1
I0
tbI00
S'\x00\x00\x00\x00\x00\x00\x00\x00'
tbsS'test_std'
p294
Fnan
sS'additional_data'
p295
g50
(g51
tRp296
I0
S'No result string returned. Please have a look at the runinstance output'
p297
ssS'test_instance_durations'
p298
g55
(g56
(I0
tS'b'
tRp299
(I1
(I1
tg293
I00
S'\x00\x00\x00\x00\x00\x00\xf8\x7f'
tbsS'params'
p300
g66
((lp301
(lp302
S'C'
aS'19.0'
p303
aa(lp304
S'Sigma'
p305
aS'0.992007761861'
p306
aatRp307
sS'result'
p308
g45
(g47
S'\x00\x00\x00\x00\x00\x00\x00\x00'
tRp309
sS'test_instance_status'
p310
g55
(g56
(I0
tS'b'
tRp311
(I1
(I1
tg46
(S'i8'
I0
I1
tRp312
(I3
S'<'
NNNI-1
I-1
I0
tbI00
S'\x00\x00\x00\x00\x00\x00\x00\x00'
tbsS'duration'
p313
g45
(g47
S'\x1d\xe5`6\x01\x86\x95?'
tRp314
sS'test_status'
p315
I0
sS'test_result'
p316
Fnan
sS'test_instance_results'
p317
g55
(g56
(I0
tS'b'
tRp318
(I1
(I1
tg293
I00
S'\x00\x00\x00\x00\x00\x00\xf8\x7f'
tbsS'instance_status'
p319
g55
(g56
(I0
tS'b'
tRp320
(I1
(I1
tg312
I00
S'\xff\xff\xff\xff\xff\xff\xff\xff'
tbsS'instance_durations'
p321
g55
(g56
(I0
tS'b'
tRp322
(I1
(I1
tg293
I00
S'\x1d\xe5`6\x01\x86\x95?'
tbsa(dp323
S'status'
p324
I-1
sS'std'
p325
g45
(g47
S'\x00\x00\x00\x00\x00\x00\x00\x00'
tRp326
sS'test_additional_data'
p327
g50
(g51
tRp328
sS'test_duration'
p329
Fnan
sS'instance_results'
p330
g55
(g56
(I0
tS'b'
tRp331
(I1
(I1
tg46
(S'f8'
I0
I1
tRp332
(I3
S'<'
NNNI-1
I-1
I0
tbI00
S'\x00\x00\x00\x00\x00\x00\x00\x00'
tbsS'test_std'
p333
Fnan
sS'additional_data'
p334
g50
(g51
tRp335
I0
S'No result string returned. Please have a look at the runinstance output'
p336
ssS'test_instance_durations'
p337
g55
(g56
(I0
tS'b'
tRp338
(I1
(I1
tg332
I00
S'\x00\x00\x00\x00\x00\x00\xf8\x7f'
tbsS'params'
p339
g66
((lp340
(lp341
S'C'
aS'23.0'
p342
aa(lp343
S'Sigma'
p344
aS'11.3545822363'
p345
aatRp346
sS'result'
p347
g45
(g47
S'\x00\x00\x00\x00\x00\x00\x00\x00'
tRp348
sS'test_instance_status'
p349
g55
(g56
(I0
tS'b'
tRp350
(I1
(I1
tg46
(S'i8'
I0
I1
tRp351
(I3
S'<'
NNNI-1
I-1
I0
tbI00
S'\x00\x00\x00\x00\x00\x00\x00\x00'
tbsS'duration'
p352
g45
(g47
S'C\xa9\xbd\x88\xb6c\x9a?'
tRp353
sS'test_status'
p354
I0
sS'test_result'
p355
Fnan
sS'test_instance_results'
p356
g55
(g56
(I0
tS'b'
tRp357
(I1
(I1
tg332
I00
S'\x00\x00\x00\x00\x00\x00\xf8\x7f'
tbsS'instance_status'
p358
g55
(g56
(I0
tS'b'
tRp359
(I1
(I1
tg351
I00
S'\xff\xff\xff\xff\xff\xff\xff\xff'
tbsS'instance_durations'
p360
g55
(g56
(I0
tS'b'
tRp361
(I1
(I1
tg332
I00
S'C\xa9\xbd\x88\xb6c\x9a?'
tbsa(dp362
S'status'
p363
I-1
sS'std'
p364
g45
(g47
S'\x00\x00\x00\x00\x00\x00\x00\x00'
tRp365
sS'test_additional_data'
p366
g50
(g51
tRp367
sS'test_duration'
p368
Fnan
sS'instance_results'
p369
g55
(g56
(I0
tS'b'
tRp370
(I1
(I1
tg46
(S'f8'
I0
I1
tRp371
(I3
S'<'
NNNI-1
I-1
I0
tbI00
S'\x00\x00\x00\x00\x00\x00\x00\x00'
tbsS'test_std'
p372
Fnan
sS'additional_data'
p373
g50
(g51
tRp374
I0
S'No result string returned. Please have a look at the runinstance output'
p375
ssS'test_instance_durations'
p376
g55
(g56
(I0
tS'b'
tRp377
(I1
(I1
tg371
I00
S'\x00\x00\x00\x00\x00\x00\xf8\x7f'
tbsS'params'
p378
g66
((lp379
(lp380
S'C'
aS'12.0'
p381
aa(lp382
S'Sigma'
p383
aS'0.134864000514'
p384
aatRp385
sS'result'
p386
g45
(g47
S'\x00\x00\x00\x00\x00\x00\x00\x00'
tRp387
sS'test_instance_status'
p388
g55
(g56
(I0
tS'b'
tRp389
(I1
(I1
tg46
(S'i8'
I0
I1
tRp390
(I3
S'<'
NNNI-1
I-1
I0
tbI00
S'\x00\x00\x00\x00\x00\x00\x00\x00'
tbsS'duration'
p391
g45
(g47
S'\xdf\xb0#\xc4K&\x95?'
tRp392
sS'test_status'
p393
I0
sS'test_result'
p394
Fnan
sS'test_instance_results'
p395
g55
(g56
(I0
tS'b'
tRp396
(I1
(I1
tg371
I00
S'\x00\x00\x00\x00\x00\x00\xf8\x7f'
tbsS'instance_status'
p397
g55
(g56
(I0
tS'b'
tRp398
(I1
(I1
tg390
I00
S'\xff\xff\xff\xff\xff\xff\xff\xff'
tbsS'instance_durations'
p399
g55
(g56
(I0
tS'b'
tRp400
(I1
(I1
tg371
I00
S'\xdf\xb0#\xc4K&\x95?'
tbsa(dp401
S'status'
p402
I-1
sS'std'
p403
g45
(g47
S'\x00\x00\x00\x00\x00\x00\x00\x00'
tRp404
sS'test_additional_data'
p405
g50
(g51
tRp406
sS'test_duration'
p407
Fnan
sS'instance_results'
p408
g55
(g56
(I0
tS'b'
tRp409
(I1
(I1
tg46
(S'f8'
I0
I1
tRp410
(I3
S'<'
NNNI-1
I-1
I0
tbI00
S'\x00\x00\x00\x00\x00\x00\x00\x00'
tbsS'test_std'
p411
Fnan
sS'additional_data'
p412
g50
(g51
tRp413
I0
S'No result string returned. Please have a look at the runinstance output'
p414
ssS'test_instance_durations'
p415
g55
(g56
(I0
tS'b'
tRp416
(I1
(I1
tg410
I00
S'\x00\x00\x00\x00\x00\x00\xf8\x7f'
tbsS'params'
p417
g66
((lp418
(lp419
S'C'
aS'0.0'
p420
aa(lp421
S'Sigma'
p422
aS'10.0271683625'
p423
aatRp424
sS'result'
p425
g45
(g47
S'\x00\x00\x00\x00\x00\x00\x00\x00'
tRp426
sS'test_instance_status'
p427
g55
(g56
(I0
tS'b'
tRp428
(I1
(I1
tg46
(S'i8'
I0
I1
tRp429
(I3
S'<'
NNNI-1
I-1
I0
tbI00
S'\x00\x00\x00\x00\x00\x00\x00\x00'
tbsS'duration'
p430
g45
(g47
S'\x8b\xcd}(\x87\x05\x95?'
tRp431
sS'test_status'
p432
I0
sS'test_result'
p433
Fnan
sS'test_instance_results'
p434
g55
(g56
(I0
tS'b'
tRp435
(I1
(I1
tg410
I00
S'\x00\x00\x00\x00\x00\x00\xf8\x7f'
tbsS'instance_status'
p436
g55
(g56
(I0
tS'b'
tRp437
(I1
(I1
tg429
I00
S'\xff\xff\xff\xff\xff\xff\xff\xff'
tbsS'instance_durations'
p438
g55
(g56
(I0
tS'b'
tRp439
(I1
(I1
tg410
I00
S'\x8b\xcd}(\x87\x05\x95?'
tbsa(dp440
S'status'
p441
I-1
sS'std'
p442
g45
(g47
S'\x00\x00\x00\x00\x00\x00\x00\x00'
tRp443
sS'test_additional_data'
p444
g50
(g51
tRp445
sS'test_duration'
p446
Fnan
sS'instance_results'
p447
g55
(g56
(I0
tS'b'
tRp448
(I1
(I1
tg46
(S'f8'
I0
I1
tRp449
(I3
S'<'
NNNI-1
I-1
I0
tbI00
S'\x00\x00\x00\x00\x00\x00\x00\x00'
tbsS'test_std'
p450
Fnan
sS'additional_data'
p451
g50
(g51
tRp452
I0
S'No result string returned. Please have a look at the runinstance output'
p453
ssS'test_instance_durations'
p454
g55
(g56
(I0
tS'b'
tRp455
(I1
(I1
tg449
I00
S'\x00\x00\x00\x00\x00\x00\xf8\x7f'
tbsS'params'
p456
g66
((lp457
(lp458
S'C'
aS'0.0'
p459
aa(lp460
S'Sigma'
p461
aS'2.3435059554'
p462
aatRp463
sS'result'
p464
g45
(g47
S'\x00\x00\x00\x00\x00\x00\x00\x00'
tRp465
sS'test_instance_status'
p466
g55
(g56
(I0
tS'b'
tRp467
(I1
(I1
tg46
(S'i8'
I0
I1
tRp468
(I3
S'<'
NNNI-1
I-1
I0
tbI00
S'\x00\x00\x00\x00\x00\x00\x00\x00'
tbsS'duration'
p469
g45
(g47
S'S\x8c=\xc5\xbbm\x98?'
tRp470
sS'test_status'
p471
I0
sS'test_result'
p472
Fnan
sS'test_instance_results'
p473
g55
(g56
(I0
tS'b'
tRp474
(I1
(I1
tg449
I00
S'\x00\x00\x00\x00\x00\x00\xf8\x7f'
tbsS'instance_status'
p475
g55
(g56
(I0
tS'b'
tRp476
(I1
(I1
tg468
I00
S'\xff\xff\xff\xff\xff\xff\xff\xff'
tbsS'instance_durations'
p477
g55
(g56
(I0
tS'b'
tRp478
(I1
(I1
tg449
I00
S'S\x8c=\xc5\xbbm\x98?'
tbsa(dp479
S'status'
p480
I-1
sS'std'
p481
g45
(g47
S'\x00\x00\x00\x00\x00\x00\x00\x00'
tRp482
sS'test_additional_data'
p483
g50
(g51
tRp484
sS'test_duration'
p485
Fnan
sS'instance_results'
p486
g55
(g56
(I0
tS'b'
tRp487
(I1
(I1
tg46
(S'f8'
I0
I1
tRp488
(I3
S'<'
NNNI-1
I-1
I0
tbI00
S'\x00\x00\x00\x00\x00\x00\x00\x00'
tbsS'test_std'
p489
Fnan
sS'additional_data'
p490
g50
(g51
tRp491
I0
S'No result string returned. Please have a look at the runinstance output'
p492
ssS'test_instance_durations'
p493
g55
(g56
(I0
tS'b'
tRp494
(I1
(I1
tg488
I00
S'\x00\x00\x00\x00\x00\x00\xf8\x7f'
tbsS'params'
p495
g66
((lp496
(lp497
S'C'
aS'18.0'
p498
aa(lp499
S'Sigma'
p500
aS'2.00411695094'
p501
aatRp502
sS'result'
p503
g45
(g47
S'\x00\x00\x00\x00\x00\x00\x00\x00'
tRp504
sS'test_instance_status'
p505
g55
(g56
(I0
tS'b'
tRp506
(I1
(I1
tg46
(S'i8'
I0
I1
tRp507
(I3
S'<'
NNNI-1
I-1
I0
tbI00
S'\x00\x00\x00\x00\x00\x00\x00\x00'
tbsS'duration'
p508
g45
(g47
S'\xad\xeb\x06\xc0.y\x9a?'
tRp509
sS'test_status'
p510
I0
sS'test_result'
p511
Fnan
sS'test_instance_results'
p512
g55
(g56
(I0
tS'b'
tRp513
(I1
(I1
tg488
I00
S'\x00\x00\x00\x00\x00\x00\xf8\x7f'
tbsS'instance_status'
p514
g55
(g56
(I0
tS'b'
tRp515
(I1
(I1
tg507
I00
S'\xff\xff\xff\xff\xff\xff\xff\xff'
tbsS'instance_durations'
p516
g55
(g56
(I0
tS'b'
tRp517
(I1
(I1
tg488
I00
S'\xad\xeb\x06\xc0.y\x9a?'
tbsa(dp518
S'status'
p519
I-1
sS'std'
p520
g45
(g47
S'\x00\x00\x00\x00\x00\x00\x00\x00'
tRp521
sS'test_additional_data'
p522
g50
(g51
tRp523
sS'test_duration'
p524
Fnan
sS'instance_results'
p525
g55
(g56
(I0
tS'b'
tRp526
(I1
(I1
tg46
(S'f8'
I0
I1
tRp527
(I3
S'<'
NNNI-1
I-1
I0
tbI00
S'\x00\x00\x00\x00\x00\x00\x00\x00'
tbsS'test_std'
p528
Fnan
sS'additional_data'
p529
g50
(g51
tRp530
I0
S'No result string returned. Please have a look at the runinstance output'
p531
ssS'test_instance_durations'
p532
g55
(g56
(I0
tS'b'
tRp533
(I1
(I1
tg527
I00
S'\x00\x00\x00\x00\x00\x00\xf8\x7f'
tbsS'params'
p534
g66
((lp535
(lp536
S'C'
aS'6.0'
p537
aa(lp538
S'Sigma'
p539
aS'10.1101313375'
p540
aatRp541
sS'result'
p542
g45
(g47
S'\x00\x00\x00\x00\x00\x00\x00\x00'
tRp543
sS'test_instance_status'
p544
g55
(g56
(I0
tS'b'
tRp545
(I1
(I1
tg46
(S'i8'
I0
I1
tRp546
(I3
S'<'
NNNI-1
I-1
I0
tbI00
S'\x00\x00\x00\x00\x00\x00\x00\x00'
tbsS'duration'
p547
g45
(g47
S'Z\x9c1\xcc\t\xda\x94?'
tRp548
sS'test_status'
p549
I0
sS'test_result'
p550
Fnan
sS'test_instance_results'
p551
g55
(g56
(I0
tS'b'
tRp552
(I1
(I1
tg527
I00
S'\x00\x00\x00\x00\x00\x00\xf8\x7f'
tbsS'instance_status'
p553
g55
(g56
(I0
tS'b'
tRp554
(I1
(I1
tg546
I00
S'\xff\xff\xff\xff\xff\xff\xff\xff'
tbsS'instance_durations'
p555
g55
(g56
(I0
tS'b'
tRp556
(I1
(I1
tg527
I00
S'Z\x9c1\xcc\t\xda\x94?'
tbsa(dp557
S'status'
p558
I-1
sS'std'
p559
g45
(g47
S'\x00\x00\x00\x00\x00\x00\x00\x00'
tRp560
sS'test_additional_data'
p561
g50
(g51
tRp562
sS'test_duration'
p563
Fnan
sS'instance_results'
p564
g55
(g56
(I0
tS'b'
tRp565
(I1
(I1
tg46
(S'f8'
I0
I1
tRp566
(I3
S'<'
NNNI-1
I-1
I0
tbI00
S'\x00\x00\x00\x00\x00\x00\x00\x00'
tbsS'test_std'
p567
Fnan
sS'additional_data'
p568
g50
(g51
tRp569
I0
S'No result string returned. Please have a look at the runinstance output'
p570
ssS'test_instance_durations'
p571
g55
(g56
(I0
tS'b'
tRp572
(I1
(I1
tg566
I00
S'\x00\x00\x00\x00\x00\x00\xf8\x7f'
tbsS'params'
p573
g66
((lp574
(lp575
S'C'
aS'19.0'
p576
aa(lp577
S'Sigma'
p578
aS'6.68126346904'
p579
aatRp580
sS'result'
p581
g45
(g47
S'\x00\x00\x00\x00\x00\x00\x00\x00'
tRp582
sS'test_instance_status'
p583
g55
(g56
(I0
tS'b'
tRp584
(I1
(I1
tg46
(S'i8'
I0
I1
tRp585
(I3
S'<'
NNNI-1
I-1
I0
tbI00
S'\x00\x00\x00\x00\x00\x00\x00\x00'
tbsS'duration'
p586
g45
(g47
S'L\xef,\x8b\xd3Z\x9a?'
tRp587
sS'test_status'
p588
I0
sS'test_result'
p589
Fnan
sS'test_instance_results'
p590
g55
(g56
(I0
tS'b'
tRp591
(I1
(I1
tg566
I00
S'\x00\x00\x00\x00\x00\x00\xf8\x7f'
tbsS'instance_status'
p592
g55
(g56
(I0
tS'b'
tRp593
(I1
(I1
tg585
I00
S'\xff\xff\xff\xff\xff\xff\xff\xff'
tbsS'instance_durations'
p594
g55
(g56
(I0
tS'b'
tRp595
(I1
(I1
tg566
I00
S'L\xef,\x8b\xd3Z\x9a?'
tbsa(dp596
S'status'
p597
I-1
sS'std'
p598
g45
(g47
S'\x00\x00\x00\x00\x00\x00\x00\x00'
tRp599
sS'test_additional_data'
p600
g50
(g51
tRp601
sS'test_duration'
p602
Fnan
sS'instance_results'
p603
g55
(g56
(I0
tS'b'
tRp604
(I1
(I1
tg46
(S'f8'
I0
I1
tRp605
(I3
S'<'
NNNI-1
I-1
I0
tbI00
S'\x00\x00\x00\x00\x00\x00\x00\x00'
tbsS'test_std'
p606
Fnan
sS'additional_data'
p607
g50
(g51
tRp608
I0
S'No result string returned. Please have a look at the runinstance output'
p609
ssS'test_instance_durations'
p610
g55
(g56
(I0
tS'b'
tRp611
(I1
(I1
tg605
I00
S'\x00\x00\x00\x00\x00\x00\xf8\x7f'
tbsS'params'
p612
g66
((lp613
(lp614
S'C'
aS'4.0'
p615
aa(lp616
S'Sigma'
p617
aS'11.0346300645'
p618
aatRp619
sS'result'
p620
g45
(g47
S'\x00\x00\x00\x00\x00\x00\x00\x00'
tRp621
sS'test_instance_status'
p622
g55
(g56
(I0
tS'b'
tRp623
(I1
(I1
tg46
(S'i8'
I0
I1
tRp624
(I3
S'<'
NNNI-1
I-1
I0
tbI00
S'\x00\x00\x00\x00\x00\x00\x00\x00'
tbsS'duration'
p625
g45
(g47
S'\x8c-\x049(a\x96?'
tRp626
sS'test_status'
p627
I0
sS'test_result'
p628
Fnan
sS'test_instance_results'
p629
g55
(g56
(I0
tS'b'
tRp630
(I1
(I1
tg605
I00
S'\x00\x00\x00\x00\x00\x00\xf8\x7f'
tbsS'instance_status'
p631
g55
(g56
(I0
tS'b'
tRp632
(I1
(I1
tg624
I00
S'\xff\xff\xff\xff\xff\xff\xff\xff'
tbsS'instance_durations'
p633
g55
(g56
(I0
tS'b'
tRp634
(I1
(I1
tg605
I00
S'\x8c-\x049(a\x96?'
tbsa(dp635
S'status'
p636
I-1
sS'std'
p637
g45
(g47
S'\x00\x00\x00\x00\x00\x00\x00\x00'
tRp638
sS'test_additional_data'
p639
g50
(g51
tRp640
sS'test_duration'
p641
Fnan
sS'instance_results'
p642
g55
(g56
(I0
tS'b'
tRp643
(I1
(I1
tg46
(S'f8'
I0
I1
tRp644
(I3
S'<'
NNNI-1
I-1
I0
tbI00
S'\x00\x00\x00\x00\x00\x00\x00\x00'
tbsS'test_std'
p645
Fnan
sS'additional_data'
p646
g50
(g51
tRp647
I0
S'No result string returned. Please have a look at the runinstance output'
p648
ssS'test_instance_durations'
p649
g55
(g56
(I0
tS'b'
tRp650
(I1
(I1
tg644
I00
S'\x00\x00\x00\x00\x00\x00\xf8\x7f'
tbsS'params'
p651
g66
((lp652
(lp653
S'C'
aS'13.0'
p654
aa(lp655
S'Sigma'
p656
aS'2.902784029'
p657
aatRp658
sS'result'
p659
g45
(g47
S'\x00\x00\x00\x00\x00\x00\x00\x00'
tRp660
sS'test_instance_status'
p661
g55
(g56
(I0
tS'b'
tRp662
(I1
(I1
tg46
(S'i8'
I0
I1
tRp663
(I3
S'<'
NNNI-1
I-1
I0
tbI00
S'\x00\x00\x00\x00\x00\x00\x00\x00'
tbsS'duration'
p664
g45
(g47
S'\xa4\x99\xddI\xfaj\x95?'
tRp665
sS'test_status'
p666
I0
sS'test_result'
p667
Fnan
sS'test_instance_results'
p668
g55
(g56
(I0
tS'b'
tRp669
(I1
(I1
tg644
I00
S'\x00\x00\x00\x00\x00\x00\xf8\x7f'
tbsS'instance_status'
p670
g55
(g56
(I0
tS'b'
tRp671
(I1
(I1
tg663
I00
S'\xff\xff\xff\xff\xff\xff\xff\xff'
tbsS'instance_durations'
p672
g55
(g56
(I0
tS'b'
tRp673
(I1
(I1
tg644
I00
S'\xa4\x99\xddI\xfaj\x95?'
tbsa(dp674
S'status'
p675
I-1
sS'std'
p676
g45
(g47
S'\x00\x00\x00\x00\x00\x00\x00\x00'
tRp677
sS'test_additional_data'
p678
g50
(g51
tRp679
sS'test_duration'
p680
Fnan
sS'instance_results'
p681
g55
(g56
(I0
tS'b'
tRp682
(I1
(I1
tg46
(S'f8'
I0
I1
tRp683
(I3
S'<'
NNNI-1
I-1
I0
tbI00
S'\x00\x00\x00\x00\x00\x00\x00\x00'
tbsS'test_std'
p684
Fnan
sS'additional_data'
p685
g50
(g51
tRp686
I0
S'No result string returned. Please have a look at the runinstance output'
p687
ssS'test_instance_durations'
p688
g55
(g56
(I0
tS'b'
tRp689
(I1
(I1
tg683
I00
S'\x00\x00\x00\x00\x00\x00\xf8\x7f'
tbsS'params'
p690
g66
((lp691
(lp692
S'C'
aS'13.0'
p693
aa(lp694
S'Sigma'
p695
aS'3.83064503493'
p696
aatRp697
sS'result'
p698
g45
(g47
S'\x00\x00\x00\x00\x00\x00\x00\x00'
tRp699
sS'test_instance_status'
p700
g55
(g56
(I0
tS'b'
tRp701
(I1
(I1
tg46
(S'i8'
I0
I1
tRp702
(I3
S'<'
NNNI-1
I-1
I0
tbI00
S'\x00\x00\x00\x00\x00\x00\x00\x00'
tbsS'duration'
p703
g45
(g47
S'\x81\x96\xae`\x1b\xf1\x94?'
tRp704
sS'test_status'
p705
I0
sS'test_result'
p706
Fnan
sS'test_instance_results'
p707
g55
(g56
(I0
tS'b'
tRp708
(I1
(I1
tg683
I00
S'\x00\x00\x00\x00\x00\x00\xf8\x7f'
tbsS'instance_status'
p709
g55
(g56
(I0
tS'b'
tRp710
(I1
(I1
tg702
I00
S'\xff\xff\xff\xff\xff\xff\xff\xff'
tbsS'instance_durations'
p711
g55
(g56
(I0
tS'b'
tRp712
(I1
(I1
tg683
I00
S'\x81\x96\xae`\x1b\xf1\x94?'
tbsa(dp713
S'status'
p714
I-1
sS'std'
p715
g45
(g47
S'\x00\x00\x00\x00\x00\x00\x00\x00'
tRp716
sS'test_additional_data'
p717
g50
(g51
tRp718
sS'test_duration'
p719
Fnan
sS'instance_results'
p720
g55
(g56
(I0
tS'b'
tRp721
(I1
(I1
tg46
(S'f8'
I0
I1
tRp722
(I3
S'<'
NNNI-1
I-1
I0
tbI00
S'\x00\x00\x00\x00\x00\x00\x00\x00'
tbsS'test_std'
p723
Fnan
sS'additional_data'
p724
g50
(g51
tRp725
I0
S'No result string returned. Please have a look at the runinstance output'
p726
ssS'test_instance_durations'
p727
g55
(g56
(I0
tS'b'
tRp728
(I1
(I1
tg722
I00
S'\x00\x00\x00\x00\x00\x00\xf8\x7f'
tbsS'params'
p729
g66
((lp730
(lp731
S'C'
aS'12.0'
p732
aa(lp733
S'Sigma'
p734
aS'8.45486514261'
p735
aatRp736
sS'result'
p737
g45
(g47
S'\x00\x00\x00\x00\x00\x00\x00\x00'
tRp738
sS'test_instance_status'
p739
g55
(g56
(I0
tS'b'
tRp740
(I1
(I1
tg46
(S'i8'
I0
I1
tRp741
(I3
S'<'
NNNI-1
I-1
I0
tbI00
S'\x00\x00\x00\x00\x00\x00\x00\x00'
tbsS'duration'
p742
g45
(g47
S'\xa5\xd1.\xf0&\t\x9b?'
tRp743
sS'test_status'
p744
I0
sS'test_result'
p745
Fnan
sS'test_instance_results'
p746
g55
(g56
(I0
tS'b'
tRp747
(I1
(I1
tg722
I00
S'\x00\x00\x00\x00\x00\x00\xf8\x7f'
tbsS'instance_status'
p748
g55
(g56
(I0
tS'b'
tRp749
(I1
(I1
tg741
I00
S'\xff\xff\xff\xff\xff\xff\xff\xff'
tbsS'instance_durations'
p750
g55
(g56
(I0
tS'b'
tRp751
(I1
(I1
tg722
I00
S'\xa5\xd1.\xf0&\t\x9b?'
tbsa(dp752
S'status'
p753
I-1
sS'std'
p754
g45
(g47
S'\x00\x00\x00\x00\x00\x00\x00\x00'
tRp755
sS'test_additional_data'
p756
g50
(g51
tRp757
sS'test_duration'
p758
Fnan
sS'instance_results'
p759
g55
(g56
(I0
tS'b'
tRp760
(I1
(I1
tg46
(S'f8'
I0
I1
tRp761
(I3
S'<'
NNNI-1
I-1
I0
tbI00
S'\x00\x00\x00\x00\x00\x00\x00\x00'
tbsS'test_std'
p762
Fnan
sS'additional_data'
p763
g50
(g51
tRp764
I0
S'No result string returned. Please have a look at the runinstance output'
p765
ssS'test_instance_durations'
p766
g55
(g56
(I0
tS'b'
tRp767
(I1
(I1
tg761
I00
S'\x00\x00\x00\x00\x00\x00\xf8\x7f'
tbsS'params'
p768
g66
((lp769
(lp770
S'C'
aS'18.0'
p771
aa(lp772
S'Sigma'
p773
aS'1.26793682274'
p774
aatRp775
sS'result'
p776
g45
(g47
S'\x00\x00\x00\x00\x00\x00\x00\x00'
tRp777
sS'test_instance_status'
p778
g55
(g56
(I0
tS'b'
tRp779
(I1
(I1
tg46
(S'i8'
I0
I1
tRp780
(I3
S'<'
NNNI-1
I-1
I0
tbI00
S'\x00\x00\x00\x00\x00\x00\x00\x00'
tbsS'duration'
p781
g45
(g47
S'\xd8\xf5\x0bv\xc3\xb6\x95?'
tRp782
sS'test_status'
p783
I0
sS'test_result'
p784
Fnan
sS'test_instance_results'
p785
g55
(g56
(I0
tS'b'
tRp786
(I1
(I1
tg761
I00
S'\x00\x00\x00\x00\x00\x00\xf8\x7f'
tbsS'instance_status'
p787
g55
(g56
(I0
tS'b'
tRp788
(I1
(I1
tg780
I00
S'\xff\xff\xff\xff\xff\xff\xff\xff'
tbsS'instance_durations'
p789
g55
(g56
(I0
tS'b'
tRp790
(I1
(I1
tg761
I00
S'\xd8\xf5\x0bv\xc3\xb6\x95?'
tbsa(dp791
S'status'
p792
I-1
sS'std'
p793
g45
(g47
S'\x00\x00\x00\x00\x00\x00\x00\x00'
tRp794
sS'test_additional_data'
p795
g50
(g51
tRp796
sS'test_duration'
p797
Fnan
sS'instance_results'
p798
g55
(g56
(I0
tS'b'
tRp799
(I1
(I1
tg46
(S'f8'
I0
I1
tRp800
(I3
S'<'
NNNI-1
I-1
I0
tbI00
S'\x00\x00\x00\x00\x00\x00\x00\x00'
tbsS'test_std'
p801
Fnan
sS'additional_data'
p802
g50
(g51
tRp803
I0
S'No result string returned. Please have a look at the runinstance output'
p804
ssS'test_instance_durations'
p805
g55
(g56
(I0
tS'b'
tRp806
(I1
(I1
tg800
I00
S'\x00\x00\x00\x00\x00\x00\xf8\x7f'
tbsS'params'
p807
g66
((lp808
(lp809
S'C'
aS'22.0'
p810
aa(lp811
S'Sigma'
p812
aS'7.645700414'
p813
aatRp814
sS'result'
p815
g45
(g47
S'\x00\x00\x00\x00\x00\x00\x00\x00'
tRp816
sS'test_instance_status'
p817
g55
(g56
(I0
tS'b'
tRp818
(I1
(I1
tg46
(S'i8'
I0
I1
tRp819
(I3
S'<'
NNNI-1
I-1
I0
tbI00
S'\x00\x00\x00\x00\x00\x00\x00\x00'
tbsS'duration'
p820
g45
(g47
S'\x98\xe0/\xc1\x04\xc9\xa2?'
tRp821
sS'test_status'
p822
I0
sS'test_result'
p823
Fnan
sS'test_instance_results'
p824
g55
(g56
(I0
tS'b'
tRp825
(I1
(I1
tg800
I00
S'\x00\x00\x00\x00\x00\x00\xf8\x7f'
tbsS'instance_status'
p826
g55
(g56
(I0
tS'b'
tRp827
(I1
(I1
tg819
I00
S'\xff\xff\xff\xff\xff\xff\xff\xff'
tbsS'instance_durations'
p828
g55
(g56
(I0
tS'b'
tRp829
(I1
(I1
tg800
I00
S'\x98\xe0/\xc1\x04\xc9\xa2?'
tbsa(dp830
S'status'
p831
I-1
sS'std'
p832
g45
(g47
S'\x00\x00\x00\x00\x00\x00\x00\x00'
tRp833
sS'test_additional_data'
p834
g50
(g51
tRp835
sS'test_duration'
p836
Fnan
sS'instance_results'
p837
g55
(g56
(I0
tS'b'
tRp838
(I1
(I1
tg46
(S'f8'
I0
I1
tRp839
(I3
S'<'
NNNI-1
I-1
I0
tbI00
S'\x00\x00\x00\x00\x00\x00\x00\x00'
tbsS'test_std'
p840
Fnan
sS'additional_data'
p841
g50
(g51
tRp842
I0
S'No result string returned. Please have a look at the runinstance output'
p843
ssS'test_instance_durations'
p844
g55
(g56
(I0
tS'b'
tRp845
(I1
(I1
tg839
I00
S'\x00\x00\x00\x00\x00\x00\xf8\x7f'
tbsS'params'
p846
g66
((lp847
(lp848
S'C'
aS'15.0'
p849
aa(lp850
S'Sigma'
p851
aS'8.57899066605'
p852
aatRp853
sS'result'
p854
g45
(g47
S'\x00\x00\x00\x00\x00\x00\x00\x00'
tRp855
sS'test_instance_status'
p856
g55
(g56
(I0
tS'b'
tRp857
(I1
(I1
tg46
(S'i8'
I0
I1
tRp858
(I3
S'<'
NNNI-1
I-1
I0
tbI00
S'\x00\x00\x00\x00\x00\x00\x00\x00'
tbsS'duration'
p859
g45
(g47
S'\xbf5f\xc8gh\x9a?'
tRp860
sS'test_status'
p861
I0
sS'test_result'
p862
Fnan
sS'test_instance_results'
p863
g55
(g56
(I0
tS'b'
tRp864
(I1
(I1
tg839
I00
S'\x00\x00\x00\x00\x00\x00\xf8\x7f'
tbsS'instance_status'
p865
g55
(g56
(I0
tS'b'
tRp866
(I1
(I1
tg858
I00
S'\xff\xff\xff\xff\xff\xff\xff\xff'
tbsS'instance_durations'
p867
g55
(g56
(I0
tS'b'
tRp868
(I1
(I1
tg839
I00
S'\xbf5f\xc8gh\x9a?'
tbsa(dp869
S'status'
p870
I-1
sS'std'
p871
g45
(g47
S'\x00\x00\x00\x00\x00\x00\x00\x00'
tRp872
sS'test_additional_data'
p873
g50
(g51
tRp874
sS'test_duration'
p875
Fnan
sS'instance_results'
p876
g55
(g56
(I0
tS'b'
tRp877
(I1
(I1
tg46
(S'f8'
I0
I1
tRp878
(I3
S'<'
NNNI-1
I-1
I0
tbI00
S'\x00\x00\x00\x00\x00\x00\x00\x00'
tbsS'test_std'
p879
Fnan
sS'additional_data'
p880
g50
(g51
tRp881
I0
S'No result string returned. Please have a look at the runinstance output'
p882
ssS'test_instance_durations'
p883
g55
(g56
(I0
tS'b'
tRp884
(I1
(I1
tg878
I00
S'\x00\x00\x00\x00\x00\x00\xf8\x7f'
tbsS'params'
p885
g66
((lp886
(lp887
S'C'
aS'9.0'
p888
aa(lp889
S'Sigma'
p890
aS'5.02530661742'
p891
aatRp892
sS'result'
p893
g45
(g47
S'\x00\x00\x00\x00\x00\x00\x00\x00'
tRp894
sS'test_instance_status'
p895
g55
(g56
(I0
tS'b'
tRp896
(I1
(I1
tg46
(S'i8'
I0
I1
tRp897
(I3
S'<'
NNNI-1
I-1
I0
tbI00
S'\x00\x00\x00\x00\x00\x00\x00\x00'
tbsS'duration'
p898
g45
(g47
S'\xb95\xe9\xb6D.\x98?'
tRp899
sS'test_status'
p900
I0
sS'test_result'
p901
Fnan
sS'test_instance_results'
p902
g55
(g56
(I0
tS'b'
tRp903
(I1
(I1
tg878
I00
S'\x00\x00\x00\x00\x00\x00\xf8\x7f'
tbsS'instance_status'
p904
g55
(g56
(I0
tS'b'
tRp905
(I1
(I1
tg897
I00
S'\xff\xff\xff\xff\xff\xff\xff\xff'
tbsS'instance_durations'
p906
g55
(g56
(I0
tS'b'
tRp907
(I1
(I1
tg878
I00
S'\xb95\xe9\xb6D.\x98?'
tbsa(dp908
S'status'
p909
I-1
sS'std'
p910
g45
(g47
S'\x00\x00\x00\x00\x00\x00\x00\x00'
tRp911
sS'test_additional_data'
p912
g50
(g51
tRp913
sS'test_duration'
p914
Fnan
sS'instance_results'
p915
g55
(g56
(I0
tS'b'
tRp916
(I1
(I1
tg46
(S'f8'
I0
I1
tRp917
(I3
S'<'
NNNI-1
I-1
I0
tbI00
S'\x00\x00\x00\x00\x00\x00\x00\x00'
tbsS'test_std'
p918
Fnan
sS'additional_data'
p919
g50
(g51
tRp920
I0
S'No result string returned. Please have a look at the runinstance output'
p921
ssS'test_instance_durations'
p922
g55
(g56
(I0
tS'b'
tRp923
(I1
(I1
tg917
I00
S'\x00\x00\x00\x00\x00\x00\xf8\x7f'
tbsS'params'
p924
g66
((lp925
(lp926
S'C'
aS'24.0'
p927
aa(lp928
S'Sigma'
p929
aS'4.59257836614'
p930
aatRp931
sS'result'
p932
g45
(g47
S'\x00\x00\x00\x00\x00\x00\x00\x00'
tRp933
sS'test_instance_status'
p934
g55
(g56
(I0
tS'b'
tRp935
(I1
(I1
tg46
(S'i8'
I0
I1
tRp936
(I3
S'<'
NNNI-1
I-1
I0
tbI00
S'\x00\x00\x00\x00\x00\x00\x00\x00'
tbsS'duration'
p937
g45
(g47
S'D\xdc\x9cJ\x06\x80\x9a?'
tRp938
sS'test_status'
p939
I0
sS'test_result'
p940
Fnan
sS'test_instance_results'
p941
g55
(g56
(I0
tS'b'
tRp942
(I1
(I1
tg917
I00
S'\x00\x00\x00\x00\x00\x00\xf8\x7f'
tbsS'instance_status'
p943
g55
(g56
(I0
tS'b'
tRp944
(I1
(I1
tg936
I00
S'\xff\xff\xff\xff\xff\xff\xff\xff'
tbsS'instance_durations'
p945
g55
(g56
(I0
tS'b'
tRp946
(I1
(I1
tg917
I00
S'D\xdc\x9cJ\x06\x80\x9a?'
tbsasS'total_wallclock_time'
p947
F0.55996369999999995
sS'experiment_name'
p948
S'hyperopt_august2013_mod'
p949
sS'starttime'
p950
(lp951
F1481565106.900058
as.