(dp1
S'cv_endtime'
p2
(lp3
F1482194365.1014161
aF1482194369.166502
aF1482194373.3288691
aF1482194377.630877
aF1482194381.751097
aF1482194385.8458331
aF1482194390.035784
aF1482194394.225636
aF1482194398.643379
aF1482194402.9573891
aF1482194407.0775189
aF1482194411.4749081
aF1482194416.055846
aF1482194421.7145281
aF1482194425.8265171
aF1482194430.463306
aF1482194434.9401529
aF1482194439.4259911
aF1482194444.6853089
aF1482194449.0004539
aF1482194453.2167931
aF1482194457.436842
aF1482194461.652967
aF1482194465.977711
aF1482194470.493371
aF1482194474.8054841
aF1482194479.131243
aF1482194483.4464459
aF1482194487.874326
aF1482194492.2190371
aF1482194496.8868351
aF1482194501.2955511
aF1482194505.5514331
aF1482194509.7875459
aF1482194514.054734
aF1482194518.332684
aF1482194522.602417
aF1482194526.9460599
aF1482194531.2834091
aF1482194535.6480999
aF1482194540.4290791
aF1482194544.76876
aF1482194549.815203
aF1482194555.1002929
aF1482194559.962914
aF1482194564.5578661
aF1482194568.8500919
aF1482194573.230659
aF1482194577.4402311
aF1482194581.7373941
asS'folds'
p4
I1
sS'cv_starttime'
p5
(lp6
F1482194361.2445431
aF1482194365.3201189
aF1482194369.3632801
aF1482194373.560112
aF1482194377.878371
aF1482194381.989589
aF1482194386.0614791
aF1482194390.241956
aF1482194394.4537799
aF1482194398.8734269
aF1482194403.1935749
aF1482194407.305409
aF1482194411.8910241
aF1482194416.9175849
aF1482194421.931565
aF1482194426.0734191
aF1482194430.661798
aF1482194435.1484201
aF1482194439.9045551
aF1482194444.902946
aF1482194449.2272911
aF1482194453.4314921
aF1482194457.661248
aF1482194461.8699901
aF1482194466.2008679
aF1482194470.713207
aF1482194475.033658
aF1482194479.349894
aF1482194483.661447
aF1482194488.1098659
aF1482194492.4486599
aF1482194497.1289771
aF1482194501.5474031
aF1482194505.7648799
aF1482194510.0171399
aF1482194514.288693
aF1482194518.564461
aF1482194522.8252339
aF1482194527.1827991
aF1482194531.5116689
aF1482194535.894594
aF1482194540.6507709
aF1482194545.0838749
aF1482194550.064085
aF1482194555.39308
aF1482194560.2008491
aF1482194564.813776
aF1482194569.0705559
aF1482194573.4816279
aF1482194577.692817
asS'endtime'
p7
(lp8
F1482194582.0008931
asS'optimizer'
p9
S'/home/elena/R_ws/automl/HPOlib/optimizers/tpe/hyperopt_august2013_mod'
p10
sS'optimizer_time'
p11
(lp12
sS'instance_order'
p13
(lp14
(I0
I0
tp15
a(I1
I0
tp16
a(I2
I0
tp17
a(I3
I0
tp18
a(I4
I0
tp19
a(I5
I0
tp20
a(I6
I0
tp21
a(I7
I0
tp22
a(I8
I0
tp23
a(I9
I0
tp24
a(I10
I0
tp25
a(I11
I0
tp26
a(I12
I0
tp27
a(I13
I0
tp28
a(I14
I0
tp29
a(I15
I0
tp30
a(I16
I0
tp31
a(I17
I0
tp32
a(I18
I0
tp33
a(I19
I0
tp34
a(I20
I0
tp35
a(I21
I0
tp36
a(I22
I0
tp37
a(I23
I0
tp38
a(I24
I0
tp39
a(I25
I0
tp40
a(I26
I0
tp41
a(I27
I0
tp42
a(I28
I0
tp43
a(I29
I0
tp44
a(I30
I0
tp45
a(I31
I0
tp46
a(I32
I0
tp47
a(I33
I0
tp48
a(I34
I0
tp49
a(I35
I0
tp50
a(I36
I0
tp51
a(I37
I0
tp52
a(I38
I0
tp53
a(I39
I0
tp54
a(I40
I0
tp55
a(I41
I0
tp56
a(I42
I0
tp57
a(I43
I0
tp58
a(I44
I0
tp59
a(I45
I0
tp60
a(I46
I0
tp61
a(I47
I0
tp62
a(I48
I0
tp63
a(I49
I0
tp64
asS'max_wallclock_time'
p65
S''
sS'title'
p66
NsS'trials'
p67
(lp68
(dp69
S'status'
p70
I3
sS'std'
p71
cnumpy.core.multiarray
scalar
p72
(cnumpy
dtype
p73
(S'f8'
I0
I1
tRp74
(I3
S'<'
NNNI-1
I-1
I0
tbS'\x00\x00\x00\x00\x00\x00\x00\x00'
tRp75
sS'test_additional_data'
p76
ccollections
defaultdict
p77
(c__builtin__
str
p78
tRp79
sS'test_duration'
p80
Fnan
sS'instance_results'
p81
cnumpy.core.multiarray
_reconstruct
p82
(cnumpy
ndarray
p83
(I0
tS'b'
tRp84
(I1
(I1
tg73
(S'f8'
I0
I1
tRp85
(I3
S'<'
NNNI-1
I-1
I0
tbI00
S'\x00\x00\x00\x00\x00\x00\x00\x00'
tbsS'test_std'
p86
Fnan
sS'instance_status'
p87
g82
(g83
(I0
tS'b'
tRp88
(I1
(I1
tg73
(S'i8'
I0
I1
tRp89
(I3
S'<'
NNNI-1
I-1
I0
tbI00
S'\x03\x00\x00\x00\x00\x00\x00\x00'
tbsS'test_instance_durations'
p90
g82
(g83
(I0
tS'b'
tRp91
(I1
(I1
tg85
I00
S'\x00\x00\x00\x00\x00\x00\xf8\x7f'
tbsS'params'
p92
ccollections
OrderedDict
p93
((lp94
(lp95
S'C'
aS'12167.0878589'
p96
aa(lp97
S'Sigma'
p98
aS'0.000556633282068'
p99
aatRp100
sS'result'
p101
g72
(g74
S'\x00\x00\x00\x00\x00\x00\x00\x00'
tRp102
sS'test_instance_status'
p103
g82
(g83
(I0
tS'b'
tRp104
(I1
(I1
tg89
I00
S'\x00\x00\x00\x00\x00\x00\x00\x00'
tbsS'duration'
p105
g72
(g74
S'\xd9\x94+\xbc\xcb\x05\x0e@'
tRp106
sS'test_status'
p107
I0
sS'test_result'
p108
Fnan
sS'test_instance_results'
p109
g82
(g83
(I0
tS'b'
tRp110
(I1
(I1
tg85
I00
S'\x00\x00\x00\x00\x00\x00\xf8\x7f'
tbsS'additional_data'
p111
g77
(g78
tRp112
I0
S'../benchmark_svm.py'
p113
ssS'instance_durations'
p114
g82
(g83
(I0
tS'b'
tRp115
(I1
(I1
tg85
I00
S'\xd9\x94+\xbc\xcb\x05\x0e@'
tbsa(dp116
S'status'
p117
I3
sS'std'
p118
g72
(g74
S'\x00\x00\x00\x00\x00\x00\x00\x00'
tRp119
sS'test_additional_data'
p120
g77
(g78
tRp121
sS'test_duration'
p122
Fnan
sS'instance_results'
p123
g82
(g83
(I0
tS'b'
tRp124
(I1
(I1
tg73
(S'f8'
I0
I1
tRp125
(I3
S'<'
NNNI-1
I-1
I0
tbI00
S'\xc3\xf1|\x06\xd4\x9b\xde?'
tbsS'test_std'
p126
Fnan
sS'instance_status'
p127
g82
(g83
(I0
tS'b'
tRp128
(I1
(I1
tg73
(S'i8'
I0
I1
tRp129
(I3
S'<'
NNNI-1
I-1
I0
tbI00
S'\x03\x00\x00\x00\x00\x00\x00\x00'
tbsS'test_instance_durations'
p130
g82
(g83
(I0
tS'b'
tRp131
(I1
(I1
tg125
I00
S'\x00\x00\x00\x00\x00\x00\xf8\x7f'
tbsS'params'
p132
g93
((lp133
(lp134
S'C'
aS'0.0113167045799'
p135
aa(lp136
S'Sigma'
p137
aS'0.000783224048763'
p138
aatRp139
sS'result'
p140
g72
(g74
S'\xc3\xf1|\x06\xd4\x9b\xde?'
tRp141
sS'test_instance_status'
p142
g82
(g83
(I0
tS'b'
tRp143
(I1
(I1
tg129
I00
S'\x00\x00\x00\x00\x00\x00\x00\x00'
tbsS'duration'
p144
g72
(g74
S'\xa3#\xb9\xfc\x874\x0e@'
tRp145
sS'test_status'
p146
I0
sS'test_result'
p147
Fnan
sS'test_instance_results'
p148
g82
(g83
(I0
tS'b'
tRp149
(I1
(I1
tg125
I00
S'\x00\x00\x00\x00\x00\x00\xf8\x7f'
tbsS'additional_data'
p150
g77
(g78
tRp151
I0
S'../benchmark_svm.py'
p152
ssS'instance_durations'
p153
g82
(g83
(I0
tS'b'
tRp154
(I1
(I1
tg125
I00
S'\xa3#\xb9\xfc\x874\x0e@'
tbsa(dp155
S'status'
p156
I3
sS'std'
p157
g72
(g74
S'\x00\x00\x00\x00\x00\x00\x00\x00'
tRp158
sS'test_additional_data'
p159
g77
(g78
tRp160
sS'test_duration'
p161
Fnan
sS'instance_results'
p162
g82
(g83
(I0
tS'b'
tRp163
(I1
(I1
tg73
(S'f8'
I0
I1
tRp164
(I3
S'<'
NNNI-1
I-1
I0
tbI00
S'\x00\x00\x00\x00\x00\x00\x00\x00'
tbsS'test_std'
p165
Fnan
sS'instance_status'
p166
g82
(g83
(I0
tS'b'
tRp167
(I1
(I1
tg73
(S'i8'
I0
I1
tRp168
(I3
S'<'
NNNI-1
I-1
I0
tbI00
S'\x03\x00\x00\x00\x00\x00\x00\x00'
tbsS'test_instance_durations'
p169
g82
(g83
(I0
tS'b'
tRp170
(I1
(I1
tg164
I00
S'\x00\x00\x00\x00\x00\x00\xf8\x7f'
tbsS'params'
p171
g93
((lp172
(lp173
S'C'
aS'9537.21175029'
p174
aa(lp175
S'Sigma'
p176
aS'0.00618494136326'
p177
aatRp178
sS'result'
p179
g72
(g74
S'\x00\x00\x00\x00\x00\x00\x00\x00'
tRp180
sS'test_instance_status'
p181
g82
(g83
(I0
tS'b'
tRp182
(I1
(I1
tg168
I00
S'\x00\x00\x00\x00\x00\x00\x00\x00'
tbsS'duration'
p183
g72
(g74
S'4\x85\xcek\xec\x92\x0e@'
tRp184
sS'test_status'
p185
I0
sS'test_result'
p186
Fnan
sS'test_instance_results'
p187
g82
(g83
(I0
tS'b'
tRp188
(I1
(I1
tg164
I00
S'\x00\x00\x00\x00\x00\x00\xf8\x7f'
tbsS'additional_data'
p189
g77
(g78
tRp190
I0
S'../benchmark_svm.py'
p191
ssS'instance_durations'
p192
g82
(g83
(I0
tS'b'
tRp193
(I1
(I1
tg164
I00
S'4\x85\xcek\xec\x92\x0e@'
tbsa(dp194
S'status'
p195
I3
sS'std'
p196
g72
(g74
S'\x00\x00\x00\x00\x00\x00\x00\x00'
tRp197
sS'test_additional_data'
p198
g77
(g78
tRp199
sS'test_duration'
p200
Fnan
sS'instance_results'
p201
g82
(g83
(I0
tS'b'
tRp202
(I1
(I1
tg73
(S'f8'
I0
I1
tRp203
(I3
S'<'
NNNI-1
I-1
I0
tbI00
S'\x84\x84(_\xd0B\xb6?'
tbsS'test_std'
p204
Fnan
sS'instance_status'
p205
g82
(g83
(I0
tS'b'
tRp206
(I1
(I1
tg73
(S'i8'
I0
I1
tRp207
(I3
S'<'
NNNI-1
I-1
I0
tbI00
S'\x03\x00\x00\x00\x00\x00\x00\x00'
tbsS'test_instance_durations'
p208
g82
(g83
(I0
tS'b'
tRp209
(I1
(I1
tg203
I00
S'\x00\x00\x00\x00\x00\x00\xf8\x7f'
tbsS'params'
p210
g93
((lp211
(lp212
S'C'
aS'381.70382609'
p213
aa(lp214
S'Sigma'
p215
aS'11.0954720564'
p216
aatRp217
sS'result'
p218
g72
(g74
S'\x84\x84(_\xd0B\xb6?'
tRp219
sS'test_instance_status'
p220
g82
(g83
(I0
tS'b'
tRp221
(I1
(I1
tg207
I00
S'\x00\x00\x00\x00\x00\x00\x00\x00'
tbsS'duration'
p222
g72
(g74
S'\xcd\x92\x005\xb5l\x0f@'
tRp223
sS'test_status'
p224
I0
sS'test_result'
p225
Fnan
sS'test_instance_results'
p226
g82
(g83
(I0
tS'b'
tRp227
(I1
(I1
tg203
I00
S'\x00\x00\x00\x00\x00\x00\xf8\x7f'
tbsS'additional_data'
p228
g77
(g78
tRp229
I0
S'../benchmark_svm.py'
p230
ssS'instance_durations'
p231
g82
(g83
(I0
tS'b'
tRp232
(I1
(I1
tg203
I00
S'\xcd\x92\x005\xb5l\x0f@'
tbsa(dp233
S'status'
p234
I3
sS'std'
p235
g72
(g74
S'\x00\x00\x00\x00\x00\x00\x00\x00'
tRp236
sS'test_additional_data'
p237
g77
(g78
tRp238
sS'test_duration'
p239
Fnan
sS'instance_results'
p240
g82
(g83
(I0
tS'b'
tRp241
(I1
(I1
tg73
(S'f8'
I0
I1
tRp242
(I3
S'<'
NNNI-1
I-1
I0
tbI00
S'\x00\x00\x00\x00\x00\x00\x00\x00'
tbsS'test_std'
p243
Fnan
sS'instance_status'
p244
g82
(g83
(I0
tS'b'
tRp245
(I1
(I1
tg73
(S'i8'
I0
I1
tRp246
(I3
S'<'
NNNI-1
I-1
I0
tbI00
S'\x03\x00\x00\x00\x00\x00\x00\x00'
tbsS'test_instance_durations'
p247
g82
(g83
(I0
tS'b'
tRp248
(I1
(I1
tg242
I00
S'\x00\x00\x00\x00\x00\x00\xf8\x7f'
tbsS'params'
p249
g93
((lp250
(lp251
S'C'
aS'246383.889147'
p252
aa(lp253
S'Sigma'
p254
aS'1.66329827644e-05'
p255
aatRp256
sS'result'
p257
g72
(g74
S'\x00\x00\x00\x00\x00\x00\x00\x00'
tRp258
sS'test_instance_status'
p259
g82
(g83
(I0
tS'b'
tRp260
(I1
(I1
tg246
I00
S'\x00\x00\x00\x00\x00\x00\x00\x00'
tbsS'duration'
p261
g72
(g74
S'\xa0\x89\xb0\xe1\xe9\x15\x0e@'
tRp262
sS'test_status'
p263
I0
sS'test_result'
p264
Fnan
sS'test_instance_results'
p265
g82
(g83
(I0
tS'b'
tRp266
(I1
(I1
tg242
I00
S'\x00\x00\x00\x00\x00\x00\xf8\x7f'
tbsS'additional_data'
p267
g77
(g78
tRp268
I0
S'../benchmark_svm.py'
p269
ssS'instance_durations'
p270
g82
(g83
(I0
tS'b'
tRp271
(I1
(I1
tg242
I00
S'\xa0\x89\xb0\xe1\xe9\x15\x0e@'
tbsa(dp272
S'status'
p273
I3
sS'std'
p274
g72
(g74
S'\x00\x00\x00\x00\x00\x00\x00\x00'
tRp275
sS'test_additional_data'
p276
g77
(g78
tRp277
sS'test_duration'
p278
Fnan
sS'instance_results'
p279
g82
(g83
(I0
tS'b'
tRp280
(I1
(I1
tg73
(S'f8'
I0
I1
tRp281
(I3
S'<'
NNNI-1
I-1
I0
tbI00
S'\x00\x00\x00\x00\x00\x00\x00\x00'
tbsS'test_std'
p282
Fnan
sS'instance_status'
p283
g82
(g83
(I0
tS'b'
tRp284
(I1
(I1
tg73
(S'i8'
I0
I1
tRp285
(I3
S'<'
NNNI-1
I-1
I0
tbI00
S'\x03\x00\x00\x00\x00\x00\x00\x00'
tbsS'test_instance_durations'
p286
g82
(g83
(I0
tS'b'
tRp287
(I1
(I1
tg281
I00
S'\x00\x00\x00\x00\x00\x00\xf8\x7f'
tbsS'params'
p288
g93
((lp289
(lp290
S'C'
aS'5.15308779075'
p291
aa(lp292
S'Sigma'
p293
aS'2.9197054148'
p294
aatRp295
sS'result'
p296
g72
(g74
S'\x00\x00\x00\x00\x00\x00\x00\x00'
tRp297
sS'test_instance_status'
p298
g82
(g83
(I0
tS'b'
tRp299
(I1
(I1
tg285
I00
S'\x00\x00\x00\x00\x00\x00\x00\x00'
tbsS'duration'
p300
g72
(g74
S'\xf8\xa5~\xdeTd\x0e@'
tRp301
sS'test_status'
p302
I0
sS'test_result'
p303
Fnan
sS'test_instance_results'
p304
g82
(g83
(I0
tS'b'
tRp305
(I1
(I1
tg281
I00
S'\x00\x00\x00\x00\x00\x00\xf8\x7f'
tbsS'additional_data'
p306
g77
(g78
tRp307
I0
S'../benchmark_svm.py'
p308
ssS'instance_durations'
p309
g82
(g83
(I0
tS'b'
tRp310
(I1
(I1
tg281
I00
S'\xf8\xa5~\xdeTd\x0e@'
tbsa(dp311
S'status'
p312
I3
sS'std'
p313
g72
(g74
S'\x00\x00\x00\x00\x00\x00\x00\x00'
tRp314
sS'test_additional_data'
p315
g77
(g78
tRp316
sS'test_duration'
p317
Fnan
sS'instance_results'
p318
g82
(g83
(I0
tS'b'
tRp319
(I1
(I1
tg73
(S'f8'
I0
I1
tRp320
(I3
S'<'
NNNI-1
I-1
I0
tbI00
S'\x00\x00\x00\x00\x00\x00\x00\x00'
tbsS'test_std'
p321
Fnan
sS'instance_status'
p322
g82
(g83
(I0
tS'b'
tRp323
(I1
(I1
tg73
(S'i8'
I0
I1
tRp324
(I3
S'<'
NNNI-1
I-1
I0
tbI00
S'\x03\x00\x00\x00\x00\x00\x00\x00'
tbsS'test_instance_durations'
p325
g82
(g83
(I0
tS'b'
tRp326
(I1
(I1
tg320
I00
S'\x00\x00\x00\x00\x00\x00\xf8\x7f'
tbsS'params'
p327
g93
((lp328
(lp329
S'C'
aS'40069.7051329'
p330
aa(lp331
S'Sigma'
p332
aS'1.20811315526e-06'
p333
aatRp334
sS'result'
p335
g72
(g74
S'\x00\x00\x00\x00\x00\x00\x00\x00'
tRp336
sS'test_instance_status'
p337
g82
(g83
(I0
tS'b'
tRp338
(I1
(I1
tg324
I00
S'\x00\x00\x00\x00\x00\x00\x00\x00'
tbsS'duration'
p339
g72
(g74
S'\x1fh\x05\x86\xac.\x0f@'
tRp340
sS'test_status'
p341
I0
sS'test_result'
p342
Fnan
sS'test_instance_results'
p343
g82
(g83
(I0
tS'b'
tRp344
(I1
(I1
tg320
I00
S'\x00\x00\x00\x00\x00\x00\xf8\x7f'
tbsS'additional_data'
p345
g77
(g78
tRp346
I0
S'../benchmark_svm.py'
p347
ssS'instance_durations'
p348
g82
(g83
(I0
tS'b'
tRp349
(I1
(I1
tg320
I00
S'\x1fh\x05\x86\xac.\x0f@'
tbsa(dp350
S'status'
p351
I3
sS'std'
p352
g72
(g74
S'\x00\x00\x00\x00\x00\x00\x00\x00'
tRp353
sS'test_additional_data'
p354
g77
(g78
tRp355
sS'test_duration'
p356
Fnan
sS'instance_results'
p357
g82
(g83
(I0
tS'b'
tRp358
(I1
(I1
tg73
(S'f8'
I0
I1
tRp359
(I3
S'<'
NNNI-1
I-1
I0
tbI00
S'\x00\x00\x00\x00\x00\x00\x00\x00'
tbsS'test_std'
p360
Fnan
sS'instance_status'
p361
g82
(g83
(I0
tS'b'
tRp362
(I1
(I1
tg73
(S'i8'
I0
I1
tRp363
(I3
S'<'
NNNI-1
I-1
I0
tbI00
S'\x03\x00\x00\x00\x00\x00\x00\x00'
tbsS'test_instance_durations'
p364
g82
(g83
(I0
tS'b'
tRp365
(I1
(I1
tg359
I00
S'\x00\x00\x00\x00\x00\x00\xf8\x7f'
tbsS'params'
p366
g93
((lp367
(lp368
S'C'
aS'1742468.34743'
p369
aa(lp370
S'Sigma'
p371
aS'2.05798891326'
p372
aatRp373
sS'result'
p374
g72
(g74
S'\x00\x00\x00\x00\x00\x00\x00\x00'
tRp375
sS'test_instance_status'
p376
g82
(g83
(I0
tS'b'
tRp377
(I1
(I1
tg363
I00
S'\x00\x00\x00\x00\x00\x00\x00\x00'
tbsS'duration'
p378
g72
(g74
S'\x84\xd3\x82\x17}\x85\x0e@'
tRp379
sS'test_status'
p380
I0
sS'test_result'
p381
Fnan
sS'test_instance_results'
p382
g82
(g83
(I0
tS'b'
tRp383
(I1
(I1
tg359
I00
S'\x00\x00\x00\x00\x00\x00\xf8\x7f'
tbsS'additional_data'
p384
g77
(g78
tRp385
I0
S'../benchmark_svm.py'
p386
ssS'instance_durations'
p387
g82
(g83
(I0
tS'b'
tRp388
(I1
(I1
tg359
I00
S'\x84\xd3\x82\x17}\x85\x0e@'
tbsa(dp389
S'status'
p390
I3
sS'std'
p391
g72
(g74
S'\x00\x00\x00\x00\x00\x00\x00\x00'
tRp392
sS'test_additional_data'
p393
g77
(g78
tRp394
sS'test_duration'
p395
Fnan
sS'instance_results'
p396
g82
(g83
(I0
tS'b'
tRp397
(I1
(I1
tg73
(S'f8'
I0
I1
tRp398
(I3
S'<'
NNNI-1
I-1
I0
tbI00
S'\xc3\xf1|\x06\xd4\x9b\xde?'
tbsS'test_std'
p399
Fnan
sS'instance_status'
p400
g82
(g83
(I0
tS'b'
tRp401
(I1
(I1
tg73
(S'i8'
I0
I1
tRp402
(I3
S'<'
NNNI-1
I-1
I0
tbI00
S'\x03\x00\x00\x00\x00\x00\x00\x00'
tbsS'test_instance_durations'
p403
g82
(g83
(I0
tS'b'
tRp404
(I1
(I1
tg398
I00
S'\x00\x00\x00\x00\x00\x00\xf8\x7f'
tbsS'params'
p405
g93
((lp406
(lp407
S'C'
aS'154.083065441'
p408
aa(lp409
S'Sigma'
p410
aS'3.68706379173e-07'
p411
aatRp412
sS'result'
p413
g72
(g74
S'\xc3\xf1|\x06\xd4\x9b\xde?'
tRp414
sS'test_instance_status'
p415
g82
(g83
(I0
tS'b'
tRp416
(I1
(I1
tg402
I00
S'\x00\x00\x00\x00\x00\x00\x00\x00'
tbsS'duration'
p417
g72
(g74
S')"\xc3*\xde\x08\x10@'
tRp418
sS'test_status'
p419
I0
sS'test_result'
p420
Fnan
sS'test_instance_results'
p421
g82
(g83
(I0
tS'b'
tRp422
(I1
(I1
tg398
I00
S'\x00\x00\x00\x00\x00\x00\xf8\x7f'
tbsS'additional_data'
p423
g77
(g78
tRp424
I0
S'../benchmark_svm.py'
p425
ssS'instance_durations'
p426
g82
(g83
(I0
tS'b'
tRp427
(I1
(I1
tg398
I00
S')"\xc3*\xde\x08\x10@'
tbsa(dp428
S'status'
p429
I3
sS'std'
p430
g72
(g74
S'\x00\x00\x00\x00\x00\x00\x00\x00'
tRp431
sS'test_additional_data'
p432
g77
(g78
tRp433
sS'test_duration'
p434
Fnan
sS'instance_results'
p435
g82
(g83
(I0
tS'b'
tRp436
(I1
(I1
tg73
(S'f8'
I0
I1
tRp437
(I3
S'<'
NNNI-1
I-1
I0
tbI00
S'\xc3\xf1|\x06\xd4\x9b\xde?'
tbsS'test_std'
p438
Fnan
sS'instance_status'
p439
g82
(g83
(I0
tS'b'
tRp440
(I1
(I1
tg73
(S'i8'
I0
I1
tRp441
(I3
S'<'
NNNI-1
I-1
I0
tbI00
S'\x03\x00\x00\x00\x00\x00\x00\x00'
tbsS'test_instance_durations'
p442
g82
(g83
(I0
tS'b'
tRp443
(I1
(I1
tg437
I00
S'\x00\x00\x00\x00\x00\x00\xf8\x7f'
tbsS'params'
p444
g93
((lp445
(lp446
S'C'
aS'0.010204147611'
p447
aa(lp448
S'Sigma'
p449
aS'0.327512708134'
p450
aatRp451
sS'result'
p452
g72
(g74
S'\xc3\xf1|\x06\xd4\x9b\xde?'
tRp453
sS'test_instance_status'
p454
g82
(g83
(I0
tS'b'
tRp455
(I1
(I1
tg441
I00
S'\x00\x00\x00\x00\x00\x00\x00\x00'
tbsS'duration'
p456
g72
(g74
S'\xb5\xa6y\xc7)\xba\x0f@'
tRp457
sS'test_status'
p458
I0
sS'test_result'
p459
Fnan
sS'test_instance_results'
p460
g82
(g83
(I0
tS'b'
tRp461
(I1
(I1
tg437
I00
S'\x00\x00\x00\x00\x00\x00\xf8\x7f'
tbsS'additional_data'
p462
g77
(g78
tRp463
I0
S'../benchmark_svm.py'
p464
ssS'instance_durations'
p465
g82
(g83
(I0
tS'b'
tRp466
(I1
(I1
tg437
I00
S'\xb5\xa6y\xc7)\xba\x0f@'
tbsa(dp467
S'status'
p468
I3
sS'std'
p469
g72
(g74
S'\x00\x00\x00\x00\x00\x00\x00\x00'
tRp470
sS'test_additional_data'
p471
g77
(g78
tRp472
sS'test_duration'
p473
Fnan
sS'instance_results'
p474
g82
(g83
(I0
tS'b'
tRp475
(I1
(I1
tg73
(S'f8'
I0
I1
tRp476
(I3
S'<'
NNNI-1
I-1
I0
tbI00
S'\xc3\xf1|\x06\xd4\x9b\xde?'
tbsS'test_std'
p477
Fnan
sS'instance_status'
p478
g82
(g83
(I0
tS'b'
tRp479
(I1
(I1
tg73
(S'i8'
I0
I1
tRp480
(I3
S'<'
NNNI-1
I-1
I0
tbI00
S'\x03\x00\x00\x00\x00\x00\x00\x00'
tbsS'test_instance_durations'
p481
g82
(g83
(I0
tS'b'
tRp482
(I1
(I1
tg476
I00
S'\x00\x00\x00\x00\x00\x00\xf8\x7f'
tbsS'params'
p483
g93
((lp484
(lp485
S'C'
aS'0.00994689168337'
p486
aa(lp487
S'Sigma'
p488
aS'7.84883378036e-06'
p489
aatRp490
sS'result'
p491
g72
(g74
S'\xc3\xf1|\x06\xd4\x9b\xde?'
tRp492
sS'test_instance_status'
p493
g82
(g83
(I0
tS'b'
tRp494
(I1
(I1
tg480
I00
S'\x00\x00\x00\x00\x00\x00\x00\x00'
tbsS'duration'
p495
g72
(g74
S"iW!\xe5'U\x0e@"
tRp496
sS'test_status'
p497
I0
sS'test_result'
p498
Fnan
sS'test_instance_results'
p499
g82
(g83
(I0
tS'b'
tRp500
(I1
(I1
tg476
I00
S'\x00\x00\x00\x00\x00\x00\xf8\x7f'
tbsS'additional_data'
p501
g77
(g78
tRp502
I0
S'../benchmark_svm.py'
p503
ssS'instance_durations'
p504
g82
(g83
(I0
tS'b'
tRp505
(I1
(I1
tg476
I00
S"iW!\xe5'U\x0e@"
tbsa(dp506
S'status'
p507
I3
sS'std'
p508
g72
(g74
S'\x00\x00\x00\x00\x00\x00\x00\x00'
tRp509
sS'test_additional_data'
p510
g77
(g78
tRp511
sS'test_duration'
p512
Fnan
sS'instance_results'
p513
g82
(g83
(I0
tS'b'
tRp514
(I1
(I1
tg73
(S'f8'
I0
I1
tRp515
(I3
S'<'
NNNI-1
I-1
I0
tbI00
S'\x00\x00\x00\x00\x00\x00\x00\x00'
tbsS'test_std'
p516
Fnan
sS'instance_status'
p517
g82
(g83
(I0
tS'b'
tRp518
(I1
(I1
tg73
(S'i8'
I0
I1
tRp519
(I3
S'<'
NNNI-1
I-1
I0
tbI00
S'\x03\x00\x00\x00\x00\x00\x00\x00'
tbsS'test_instance_durations'
p520
g82
(g83
(I0
tS'b'
tRp521
(I1
(I1
tg515
I00
S'\x00\x00\x00\x00\x00\x00\xf8\x7f'
tbsS'params'
p522
g93
((lp523
(lp524
S'C'
aS'18051.6781242'
p525
aa(lp526
S'Sigma'
p527
aS'4.90591549469e-06'
p528
aatRp529
sS'result'
p530
g72
(g74
S'\x00\x00\x00\x00\x00\x00\x00\x00'
tRp531
sS'test_instance_status'
p532
g82
(g83
(I0
tS'b'
tRp533
(I1
(I1
tg519
I00
S'\x00\x00\x00\x00\x00\x00\x00\x00'
tbsS'duration'
p534
g72
(g74
S'\xde\xabV&\xfc2\x10@'
tRp535
sS'test_status'
p536
I0
sS'test_result'
p537
Fnan
sS'test_instance_results'
p538
g82
(g83
(I0
tS'b'
tRp539
(I1
(I1
tg515
I00
S'\x00\x00\x00\x00\x00\x00\xf8\x7f'
tbsS'additional_data'
p540
g77
(g78
tRp541
I0
S'../benchmark_svm.py'
p542
ssS'instance_durations'
p543
g82
(g83
(I0
tS'b'
tRp544
(I1
(I1
tg515
I00
S'\xde\xabV&\xfc2\x10@'
tbsa(dp545
S'status'
p546
I3
sS'std'
p547
g72
(g74
S'\x00\x00\x00\x00\x00\x00\x00\x00'
tRp548
sS'test_additional_data'
p549
g77
(g78
tRp550
sS'test_duration'
p551
Fnan
sS'instance_results'
p552
g82
(g83
(I0
tS'b'
tRp553
(I1
(I1
tg73
(S'f8'
I0
I1
tRp554
(I3
S'<'
NNNI-1
I-1
I0
tbI00
S'\x00\x00\x00\x00\x00\x00\x00\x00'
tbsS'test_std'
p555
Fnan
sS'instance_status'
p556
g82
(g83
(I0
tS'b'
tRp557
(I1
(I1
tg73
(S'i8'
I0
I1
tRp558
(I3
S'<'
NNNI-1
I-1
I0
tbI00
S'\x03\x00\x00\x00\x00\x00\x00\x00'
tbsS'test_instance_durations'
p559
g82
(g83
(I0
tS'b'
tRp560
(I1
(I1
tg554
I00
S'\x00\x00\x00\x00\x00\x00\xf8\x7f'
tbsS'params'
p561
g93
((lp562
(lp563
S'C'
aS'0.779443091704'
p564
aa(lp565
S'Sigma'
p566
aS'0.367380710731'
p567
aatRp568
sS'result'
p569
g72
(g74
S'\x00\x00\x00\x00\x00\x00\x00\x00'
tRp570
sS'test_instance_status'
p571
g82
(g83
(I0
tS'b'
tRp572
(I1
(I1
tg558
I00
S'\x00\x00\x00\x00\x00\x00\x00\x00'
tbsS'duration'
p573
g72
(g74
S'\xd8*\xc1\xe2p\x06\x10@'
tRp574
sS'test_status'
p575
I0
sS'test_result'
p576
Fnan
sS'test_instance_results'
p577
g82
(g83
(I0
tS'b'
tRp578
(I1
(I1
tg554
I00
S'\x00\x00\x00\x00\x00\x00\xf8\x7f'
tbsS'additional_data'
p579
g77
(g78
tRp580
I0
S'../benchmark_svm.py'
p581
ssS'instance_durations'
p582
g82
(g83
(I0
tS'b'
tRp583
(I1
(I1
tg554
I00
S'\xd8*\xc1\xe2p\x06\x10@'
tbsa(dp584
S'status'
p585
I3
sS'std'
p586
g72
(g74
S'\x00\x00\x00\x00\x00\x00\x00\x00'
tRp587
sS'test_additional_data'
p588
g77
(g78
tRp589
sS'test_duration'
p590
Fnan
sS'instance_results'
p591
g82
(g83
(I0
tS'b'
tRp592
(I1
(I1
tg73
(S'f8'
I0
I1
tRp593
(I3
S'<'
NNNI-1
I-1
I0
tbI00
S'\x00\x00\x00\x00\x00\x00\x00\x00'
tbsS'test_std'
p594
Fnan
sS'instance_status'
p595
g82
(g83
(I0
tS'b'
tRp596
(I1
(I1
tg73
(S'i8'
I0
I1
tRp597
(I3
S'<'
NNNI-1
I-1
I0
tbI00
S'\x03\x00\x00\x00\x00\x00\x00\x00'
tbsS'test_instance_durations'
p598
g82
(g83
(I0
tS'b'
tRp599
(I1
(I1
tg593
I00
S'\x00\x00\x00\x00\x00\x00\xf8\x7f'
tbsS'params'
p600
g93
((lp601
(lp602
S'C'
aS'35006.920223'
p603
aa(lp604
S'Sigma'
p605
aS'0.00318590204922'
p606
aatRp607
sS'result'
p608
g72
(g74
S'\x00\x00\x00\x00\x00\x00\x00\x00'
tRp609
sS'test_instance_status'
p610
g82
(g83
(I0
tS'b'
tRp611
(I1
(I1
tg597
I00
S'\x00\x00\x00\x00\x00\x00\x00\x00'
tbsS'duration'
p612
g72
(g74
S'9\x7f\x13\n\x11p\x12@'
tRp613
sS'test_status'
p614
I0
sS'test_result'
p615
Fnan
sS'test_instance_results'
p616
g82
(g83
(I0
tS'b'
tRp617
(I1
(I1
tg593
I00
S'\x00\x00\x00\x00\x00\x00\xf8\x7f'
tbsS'additional_data'
p618
g77
(g78
tRp619
I0
S'../benchmark_svm.py'
p620
ssS'instance_durations'
p621
g82
(g83
(I0
tS'b'
tRp622
(I1
(I1
tg593
I00
S'9\x7f\x13\n\x11p\x12@'
tbsa(dp623
S'status'
p624
I3
sS'std'
p625
g72
(g74
S'\x00\x00\x00\x00\x00\x00\x00\x00'
tRp626
sS'test_additional_data'
p627
g77
(g78
tRp628
sS'test_duration'
p629
Fnan
sS'instance_results'
p630
g82
(g83
(I0
tS'b'
tRp631
(I1
(I1
tg73
(S'f8'
I0
I1
tRp632
(I3
S'<'
NNNI-1
I-1
I0
tbI00
S'\x00\x00\x00\x00\x00\x00\x00\x00'
tbsS'test_std'
p633
Fnan
sS'instance_status'
p634
g82
(g83
(I0
tS'b'
tRp635
(I1
(I1
tg73
(S'i8'
I0
I1
tRp636
(I3
S'<'
NNNI-1
I-1
I0
tbI00
S'\x03\x00\x00\x00\x00\x00\x00\x00'
tbsS'test_instance_durations'
p637
g82
(g83
(I0
tS'b'
tRp638
(I1
(I1
tg632
I00
S'\x00\x00\x00\x00\x00\x00\xf8\x7f'
tbsS'params'
p639
g93
((lp640
(lp641
S'C'
aS'0.241211412057'
p642
aa(lp643
S'Sigma'
p644
aS'1.32143537464'
p645
aatRp646
sS'result'
p647
g72
(g74
S'\x00\x00\x00\x00\x00\x00\x00\x00'
tRp648
sS'test_instance_status'
p649
g82
(g83
(I0
tS'b'
tRp650
(I1
(I1
tg636
I00
S'\x00\x00\x00\x00\x00\x00\x00\x00'
tbsS'duration'
p651
g72
(g74
S'\xa2E\xb6\xf3\xfdT\x0e@'
tRp652
sS'test_status'
p653
I0
sS'test_result'
p654
Fnan
sS'test_instance_results'
p655
g82
(g83
(I0
tS'b'
tRp656
(I1
(I1
tg632
I00
S'\x00\x00\x00\x00\x00\x00\xf8\x7f'
tbsS'additional_data'
p657
g77
(g78
tRp658
I0
S'../benchmark_svm.py'
p659
ssS'instance_durations'
p660
g82
(g83
(I0
tS'b'
tRp661
(I1
(I1
tg632
I00
S'\xa2E\xb6\xf3\xfdT\x0e@'
tbsa(dp662
S'status'
p663
I3
sS'std'
p664
g72
(g74
S'\x00\x00\x00\x00\x00\x00\x00\x00'
tRp665
sS'test_additional_data'
p666
g77
(g78
tRp667
sS'test_duration'
p668
Fnan
sS'instance_results'
p669
g82
(g83
(I0
tS'b'
tRp670
(I1
(I1
tg73
(S'f8'
I0
I1
tRp671
(I3
S'<'
NNNI-1
I-1
I0
tbI00
S'\x00\x00\x00\x00\x00\x00\x00\x00'
tbsS'test_std'
p672
Fnan
sS'instance_status'
p673
g82
(g83
(I0
tS'b'
tRp674
(I1
(I1
tg73
(S'i8'
I0
I1
tRp675
(I3
S'<'
NNNI-1
I-1
I0
tbI00
S'\x03\x00\x00\x00\x00\x00\x00\x00'
tbsS'test_instance_durations'
p676
g82
(g83
(I0
tS'b'
tRp677
(I1
(I1
tg671
I00
S'\x00\x00\x00\x00\x00\x00\xf8\x7f'
tbsS'params'
p678
g93
((lp679
(lp680
S'C'
aS'235.866703084'
p681
aa(lp682
S'Sigma'
p683
aS'1.70261429384e-05'
p684
aatRp685
sS'result'
p686
g72
(g74
S'\x00\x00\x00\x00\x00\x00\x00\x00'
tRp687
sS'test_instance_status'
p688
g82
(g83
(I0
tS'b'
tRp689
(I1
(I1
tg675
I00
S'\x00\x00\x00\x00\x00\x00\x00\x00'
tbsS'duration'
p690
g72
(g74
S'\xf7\x1e.9\xee\xd4\x10@'
tRp691
sS'test_status'
p692
I0
sS'test_result'
p693
Fnan
sS'test_instance_results'
p694
g82
(g83
(I0
tS'b'
tRp695
(I1
(I1
tg671
I00
S'\x00\x00\x00\x00\x00\x00\xf8\x7f'
tbsS'additional_data'
p696
g77
(g78
tRp697
I0
S'../benchmark_svm.py'
p698
ssS'instance_durations'
p699
g82
(g83
(I0
tS'b'
tRp700
(I1
(I1
tg671
I00
S'\xf7\x1e.9\xee\xd4\x10@'
tbsa(dp701
S'status'
p702
I3
sS'std'
p703
g72
(g74
S'\x00\x00\x00\x00\x00\x00\x00\x00'
tRp704
sS'test_additional_data'
p705
g77
(g78
tRp706
sS'test_duration'
p707
Fnan
sS'instance_results'
p708
g82
(g83
(I0
tS'b'
tRp709
(I1
(I1
tg73
(S'f8'
I0
I1
tRp710
(I3
S'<'
NNNI-1
I-1
I0
tbI00
S'\x00\x00\x00\x00\x00\x00\x00\x00'
tbsS'test_std'
p711
Fnan
sS'instance_status'
p712
g82
(g83
(I0
tS'b'
tRp713
(I1
(I1
tg73
(S'i8'
I0
I1
tRp714
(I3
S'<'
NNNI-1
I-1
I0
tbI00
S'\x03\x00\x00\x00\x00\x00\x00\x00'
tbsS'test_instance_durations'
p715
g82
(g83
(I0
tS'b'
tRp716
(I1
(I1
tg710
I00
S'\x00\x00\x00\x00\x00\x00\xf8\x7f'
tbsS'params'
p717
g93
((lp718
(lp719
S'C'
aS'273.618585283'
p720
aa(lp721
S'Sigma'
p722
aS'6.15272770858e-05'
p723
aatRp724
sS'result'
p725
g72
(g74
S'\x00\x00\x00\x00\x00\x00\x00\x00'
tRp726
sS'test_instance_status'
p727
g82
(g83
(I0
tS'b'
tRp728
(I1
(I1
tg714
I00
S'\x00\x00\x00\x00\x00\x00\x00\x00'
tbsS'duration'
p729
g72
(g74
S"\xf6b('\xda\x95\x10@"
tRp730
sS'test_status'
p731
I0
sS'test_result'
p732
Fnan
sS'test_instance_results'
p733
g82
(g83
(I0
tS'b'
tRp734
(I1
(I1
tg710
I00
S'\x00\x00\x00\x00\x00\x00\xf8\x7f'
tbsS'additional_data'
p735
g77
(g78
tRp736
I0
S'../benchmark_svm.py'
p737
ssS'instance_durations'
p738
g82
(g83
(I0
tS'b'
tRp739
(I1
(I1
tg710
I00
S"\xf6b('\xda\x95\x10@"
tbsa(dp740
S'status'
p741
I3
sS'std'
p742
g72
(g74
S'\x00\x00\x00\x00\x00\x00\x00\x00'
tRp743
sS'test_additional_data'
p744
g77
(g78
tRp745
sS'test_duration'
p746
Fnan
sS'instance_results'
p747
g82
(g83
(I0
tS'b'
tRp748
(I1
(I1
tg73
(S'f8'
I0
I1
tRp749
(I3
S'<'
NNNI-1
I-1
I0
tbI00
S'\x00\x00\x00\x00\x00\x00\x00\x00'
tbsS'test_std'
p750
Fnan
sS'instance_status'
p751
g82
(g83
(I0
tS'b'
tRp752
(I1
(I1
tg73
(S'i8'
I0
I1
tRp753
(I3
S'<'
NNNI-1
I-1
I0
tbI00
S'\x03\x00\x00\x00\x00\x00\x00\x00'
tbsS'test_instance_durations'
p754
g82
(g83
(I0
tS'b'
tRp755
(I1
(I1
tg749
I00
S'\x00\x00\x00\x00\x00\x00\xf8\x7f'
tbsS'params'
p756
g93
((lp757
(lp758
S'C'
aS'165.515935087'
p759
aa(lp760
S'Sigma'
p761
aS'0.0371324641067'
p762
aatRp763
sS'result'
p764
g72
(g74
S'\x00\x00\x00\x00\x00\x00\x00\x00'
tRp765
sS'test_instance_status'
p766
g82
(g83
(I0
tS'b'
tRp767
(I1
(I1
tg753
I00
S'\x00\x00\x00\x00\x00\x00\x00\x00'
tbsS'duration'
p768
g72
(g74
S'\xe3p\xe6Ws\x80\x10@'
tRp769
sS'test_status'
p770
I0
sS'test_result'
p771
Fnan
sS'test_instance_results'
p772
g82
(g83
(I0
tS'b'
tRp773
(I1
(I1
tg749
I00
S'\x00\x00\x00\x00\x00\x00\xf8\x7f'
tbsS'additional_data'
p774
g77
(g78
tRp775
I0
S'../benchmark_svm.py'
p776
ssS'instance_durations'
p777
g82
(g83
(I0
tS'b'
tRp778
(I1
(I1
tg749
I00
S'\xe3p\xe6Ws\x80\x10@'
tbsa(dp779
S'status'
p780
I3
sS'std'
p781
g72
(g74
S'\x00\x00\x00\x00\x00\x00\x00\x00'
tRp782
sS'test_additional_data'
p783
g77
(g78
tRp784
sS'test_duration'
p785
Fnan
sS'instance_results'
p786
g82
(g83
(I0
tS'b'
tRp787
(I1
(I1
tg73
(S'f8'
I0
I1
tRp788
(I3
S'<'
NNNI-1
I-1
I0
tbI00
S'\x00\x00\x00\x00\x00\x00\x00\x00'
tbsS'test_std'
p789
Fnan
sS'instance_status'
p790
g82
(g83
(I0
tS'b'
tRp791
(I1
(I1
tg73
(S'i8'
I0
I1
tRp792
(I3
S'<'
NNNI-1
I-1
I0
tbI00
S'\x03\x00\x00\x00\x00\x00\x00\x00'
tbsS'test_instance_durations'
p793
g82
(g83
(I0
tS'b'
tRp794
(I1
(I1
tg788
I00
S'\x00\x00\x00\x00\x00\x00\xf8\x7f'
tbsS'params'
p795
g93
((lp796
(lp797
S'C'
aS'27584.0871665'
p798
aa(lp799
S'Sigma'
p800
aS'1.77024045821e-06'
p801
aatRp802
sS'result'
p803
g72
(g74
S'\x00\x00\x00\x00\x00\x00\x00\x00'
tRp804
sS'test_instance_status'
p805
g82
(g83
(I0
tS'b'
tRp806
(I1
(I1
tg792
I00
S'\x00\x00\x00\x00\x00\x00\x00\x00'
tbsS'duration'
p807
g72
(g74
S'\xda\x03\xad\xc0\x90\x95\x11@'
tRp808
sS'test_status'
p809
I0
sS'test_result'
p810
Fnan
sS'test_instance_results'
p811
g82
(g83
(I0
tS'b'
tRp812
(I1
(I1
tg788
I00
S'\x00\x00\x00\x00\x00\x00\xf8\x7f'
tbsS'additional_data'
p813
g77
(g78
tRp814
I0
S'../benchmark_svm.py'
p815
ssS'instance_durations'
p816
g82
(g83
(I0
tS'b'
tRp817
(I1
(I1
tg788
I00
S'\xda\x03\xad\xc0\x90\x95\x11@'
tbsa(dp818
S'status'
p819
I3
sS'std'
p820
g72
(g74
S'\x00\x00\x00\x00\x00\x00\x00\x00'
tRp821
sS'test_additional_data'
p822
g77
(g78
tRp823
sS'test_duration'
p824
Fnan
sS'instance_results'
p825
g82
(g83
(I0
tS'b'
tRp826
(I1
(I1
tg73
(S'f8'
I0
I1
tRp827
(I3
S'<'
NNNI-1
I-1
I0
tbI00
S'\x00\x00\x00\x00\x00\x00\x00\x00'
tbsS'test_std'
p828
Fnan
sS'instance_status'
p829
g82
(g83
(I0
tS'b'
tRp830
(I1
(I1
tg73
(S'i8'
I0
I1
tRp831
(I3
S'<'
NNNI-1
I-1
I0
tbI00
S'\x03\x00\x00\x00\x00\x00\x00\x00'
tbsS'test_instance_durations'
p832
g82
(g83
(I0
tS'b'
tRp833
(I1
(I1
tg827
I00
S'\x00\x00\x00\x00\x00\x00\xf8\x7f'
tbsS'params'
p834
g93
((lp835
(lp836
S'C'
aS'422639.377177'
p837
aa(lp838
S'Sigma'
p839
aS'0.0121109463222'
p840
aatRp841
sS'result'
p842
g72
(g74
S'\x00\x00\x00\x00\x00\x00\x00\x00'
tRp843
sS'test_instance_status'
p844
g82
(g83
(I0
tS'b'
tRp845
(I1
(I1
tg831
I00
S'\x00\x00\x00\x00\x00\x00\x00\x00'
tbsS'duration'
p846
g72
(g74
S'\x7fj\xbct\x93X\x0f@'
tRp847
sS'test_status'
p848
I0
sS'test_result'
p849
Fnan
sS'test_instance_results'
p850
g82
(g83
(I0
tS'b'
tRp851
(I1
(I1
tg827
I00
S'\x00\x00\x00\x00\x00\x00\xf8\x7f'
tbsS'additional_data'
p852
g77
(g78
tRp853
I0
S'../benchmark_svm.py'
p854
ssS'instance_durations'
p855
g82
(g83
(I0
tS'b'
tRp856
(I1
(I1
tg827
I00
S'\x7fj\xbct\x93X\x0f@'
tbsa(dp857
S'status'
p858
I3
sS'std'
p859
g72
(g74
S'\x00\x00\x00\x00\x00\x00\x00\x00'
tRp860
sS'test_additional_data'
p861
g77
(g78
tRp862
sS'test_duration'
p863
Fnan
sS'instance_results'
p864
g82
(g83
(I0
tS'b'
tRp865
(I1
(I1
tg73
(S'f8'
I0
I1
tRp866
(I3
S'<'
NNNI-1
I-1
I0
tbI00
S'\x00\x00\x00\x00\x00\x00\x00\x00'
tbsS'test_std'
p867
Fnan
sS'instance_status'
p868
g82
(g83
(I0
tS'b'
tRp869
(I1
(I1
tg73
(S'i8'
I0
I1
tRp870
(I3
S'<'
NNNI-1
I-1
I0
tbI00
S'\x03\x00\x00\x00\x00\x00\x00\x00'
tbsS'test_instance_durations'
p871
g82
(g83
(I0
tS'b'
tRp872
(I1
(I1
tg866
I00
S'\x00\x00\x00\x00\x00\x00\xf8\x7f'
tbsS'params'
p873
g93
((lp874
(lp875
S'C'
aS'1809.21803094'
p876
aa(lp877
S'Sigma'
p878
aS'0.0440955001425'
p879
aatRp880
sS'result'
p881
g72
(g74
S'\x00\x00\x00\x00\x00\x00\x00\x00'
tRp882
sS'test_instance_status'
p883
g82
(g83
(I0
tS'b'
tRp884
(I1
(I1
tg870
I00
S'\x00\x00\x00\x00\x00\x00\x00\x00'
tbsS'duration'
p885
g72
(g74
S'\xb7E\x99\r2\x89\x0e@'
tRp886
sS'test_status'
p887
I0
sS'test_result'
p888
Fnan
sS'test_instance_results'
p889
g82
(g83
(I0
tS'b'
tRp890
(I1
(I1
tg866
I00
S'\x00\x00\x00\x00\x00\x00\xf8\x7f'
tbsS'additional_data'
p891
g77
(g78
tRp892
I0
S'../benchmark_svm.py'
p893
ssS'instance_durations'
p894
g82
(g83
(I0
tS'b'
tRp895
(I1
(I1
tg866
I00
S'\xb7E\x99\r2\x89\x0e@'
tbsa(dp896
S'status'
p897
I3
sS'std'
p898
g72
(g74
S'\x00\x00\x00\x00\x00\x00\x00\x00'
tRp899
sS'test_additional_data'
p900
g77
(g78
tRp901
sS'test_duration'
p902
Fnan
sS'instance_results'
p903
g82
(g83
(I0
tS'b'
tRp904
(I1
(I1
tg73
(S'f8'
I0
I1
tRp905
(I3
S'<'
NNNI-1
I-1
I0
tbI00
S'\x00\x00\x00\x00\x00\x00\x00\x00'
tbsS'test_std'
p906
Fnan
sS'instance_status'
p907
g82
(g83
(I0
tS'b'
tRp908
(I1
(I1
tg73
(S'i8'
I0
I1
tRp909
(I3
S'<'
NNNI-1
I-1
I0
tbI00
S'\x03\x00\x00\x00\x00\x00\x00\x00'
tbsS'test_instance_durations'
p910
g82
(g83
(I0
tS'b'
tRp911
(I1
(I1
tg905
I00
S'\x00\x00\x00\x00\x00\x00\xf8\x7f'
tbsS'params'
p912
g93
((lp913
(lp914
S'C'
aS'12.1084340422'
p915
aa(lp916
S'Sigma'
p917
aS'0.000321702566729'
p918
aatRp919
sS'result'
p920
g72
(g74
S'\x00\x00\x00\x00\x00\x00\x00\x00'
tRp921
sS'test_instance_status'
p922
g82
(g83
(I0
tS'b'
tRp923
(I1
(I1
tg909
I00
S'\x00\x00\x00\x00\x00\x00\x00\x00'
tbsS'duration'
p924
g72
(g74
S'L\xfd\xbc\xa9H\xc5\x0e@'
tRp925
sS'test_status'
p926
I0
sS'test_result'
p927
Fnan
sS'test_instance_results'
p928
g82
(g83
(I0
tS'b'
tRp929
(I1
(I1
tg905
I00
S'\x00\x00\x00\x00\x00\x00\xf8\x7f'
tbsS'additional_data'
p930
g77
(g78
tRp931
I0
S'../benchmark_svm.py'
p932
ssS'instance_durations'
p933
g82
(g83
(I0
tS'b'
tRp934
(I1
(I1
tg905
I00
S'L\xfd\xbc\xa9H\xc5\x0e@'
tbsa(dp935
S'status'
p936
I3
sS'std'
p937
g72
(g74
S'\x00\x00\x00\x00\x00\x00\x00\x00'
tRp938
sS'test_additional_data'
p939
g77
(g78
tRp940
sS'test_duration'
p941
Fnan
sS'instance_results'
p942
g82
(g83
(I0
tS'b'
tRp943
(I1
(I1
tg73
(S'f8'
I0
I1
tRp944
(I3
S'<'
NNNI-1
I-1
I0
tbI00
S'\x00\x00\x00\x00\x00\x00\x00\x00'
tbsS'test_std'
p945
Fnan
sS'instance_status'
p946
g82
(g83
(I0
tS'b'
tRp947
(I1
(I1
tg73
(S'i8'
I0
I1
tRp948
(I3
S'<'
NNNI-1
I-1
I0
tbI00
S'\x03\x00\x00\x00\x00\x00\x00\x00'
tbsS'test_instance_durations'
p949
g82
(g83
(I0
tS'b'
tRp950
(I1
(I1
tg944
I00
S'\x00\x00\x00\x00\x00\x00\xf8\x7f'
tbsS'params'
p951
g93
((lp952
(lp953
S'C'
aS'2657129.0183'
p954
aa(lp955
S'Sigma'
p956
aS'0.000176702092043'
p957
aatRp958
sS'result'
p959
g72
(g74
S'\x00\x00\x00\x00\x00\x00\x00\x00'
tRp960
sS'test_instance_status'
p961
g82
(g83
(I0
tS'b'
tRp962
(I1
(I1
tg948
I00
S'\x00\x00\x00\x00\x00\x00\x00\x00'
tbsS'duration'
p963
g72
(g74
S'\x10X9\xb4\xc8\xb6\x0e@'
tRp964
sS'test_status'
p965
I0
sS'test_result'
p966
Fnan
sS'test_instance_results'
p967
g82
(g83
(I0
tS'b'
tRp968
(I1
(I1
tg944
I00
S'\x00\x00\x00\x00\x00\x00\xf8\x7f'
tbsS'additional_data'
p969
g77
(g78
tRp970
I0
S'../benchmark_svm.py'
p971
ssS'instance_durations'
p972
g82
(g83
(I0
tS'b'
tRp973
(I1
(I1
tg944
I00
S'\x10X9\xb4\xc8\xb6\x0e@'
tbsa(dp974
S'status'
p975
I3
sS'std'
p976
g72
(g74
S'\x00\x00\x00\x00\x00\x00\x00\x00'
tRp977
sS'test_additional_data'
p978
g77
(g78
tRp979
sS'test_duration'
p980
Fnan
sS'instance_results'
p981
g82
(g83
(I0
tS'b'
tRp982
(I1
(I1
tg73
(S'f8'
I0
I1
tRp983
(I3
S'<'
NNNI-1
I-1
I0
tbI00
S'\x00\x00\x00\x00\x00\x00\x00\x00'
tbsS'test_std'
p984
Fnan
sS'instance_status'
p985
g82
(g83
(I0
tS'b'
tRp986
(I1
(I1
tg73
(S'i8'
I0
I1
tRp987
(I3
S'<'
NNNI-1
I-1
I0
tbI00
S'\x03\x00\x00\x00\x00\x00\x00\x00'
tbsS'test_instance_durations'
p988
g82
(g83
(I0
tS'b'
tRp989
(I1
(I1
tg983
I00
S'\x00\x00\x00\x00\x00\x00\xf8\x7f'
tbsS'params'
p990
g93
((lp991
(lp992
S'C'
aS'2573.18548465'
p993
aa(lp994
S'Sigma'
p995
aS'0.101333132869'
p996
aatRp997
sS'result'
p998
g72
(g74
S'\x00\x00\x00\x00\x00\x00\x00\x00'
tRp999
sS'test_instance_status'
p1000
g82
(g83
(I0
tS'b'
tRp1001
(I1
(I1
tg987
I00
S'\x00\x00\x00\x00\x00\x00\x00\x00'
tbsS'duration'
p1002
g72
(g74
S'\xc2L\xdb\xbf\xb2\x92\x0f@'
tRp1003
sS'test_status'
p1004
I0
sS'test_result'
p1005
Fnan
sS'test_instance_results'
p1006
g82
(g83
(I0
tS'b'
tRp1007
(I1
(I1
tg983
I00
S'\x00\x00\x00\x00\x00\x00\xf8\x7f'
tbsS'additional_data'
p1008
g77
(g78
tRp1009
I0
S'../benchmark_svm.py'
p1010
ssS'instance_durations'
p1011
g82
(g83
(I0
tS'b'
tRp1012
(I1
(I1
tg983
I00
S'\xc2L\xdb\xbf\xb2\x92\x0f@'
tbsa(dp1013
S'status'
p1014
I3
sS'std'
p1015
g72
(g74
S'\x00\x00\x00\x00\x00\x00\x00\x00'
tRp1016
sS'test_additional_data'
p1017
g77
(g78
tRp1018
sS'test_duration'
p1019
Fnan
sS'instance_results'
p1020
g82
(g83
(I0
tS'b'
tRp1021
(I1
(I1
tg73
(S'f8'
I0
I1
tRp1022
(I3
S'<'
NNNI-1
I-1
I0
tbI00
S'\x00\x00\x00\x00\x00\x00\x00\x00'
tbsS'test_std'
p1023
Fnan
sS'instance_status'
p1024
g82
(g83
(I0
tS'b'
tRp1025
(I1
(I1
tg73
(S'i8'
I0
I1
tRp1026
(I3
S'<'
NNNI-1
I-1
I0
tbI00
S'\x03\x00\x00\x00\x00\x00\x00\x00'
tbsS'test_instance_durations'
p1027
g82
(g83
(I0
tS'b'
tRp1028
(I1
(I1
tg1022
I00
S'\x00\x00\x00\x00\x00\x00\xf8\x7f'
tbsS'params'
p1029
g93
((lp1030
(lp1031
S'C'
aS'8.53672985426'
p1032
aa(lp1033
S'Sigma'
p1034
aS'0.000293789341775'
p1035
aatRp1036
sS'result'
p1037
g72
(g74
S'\x00\x00\x00\x00\x00\x00\x00\x00'
tRp1038
sS'test_instance_status'
p1039
g82
(g83
(I0
tS'b'
tRp1040
(I1
(I1
tg1026
I00
S'\x00\x00\x00\x00\x00\x00\x00\x00'
tbsS'duration'
p1041
g72
(g74
S'`\x935\xea!\xba\x10@'
tRp1042
sS'test_status'
p1043
I0
sS'test_result'
p1044
Fnan
sS'test_instance_results'
p1045
g82
(g83
(I0
tS'b'
tRp1046
(I1
(I1
tg1022
I00
S'\x00\x00\x00\x00\x00\x00\xf8\x7f'
tbsS'additional_data'
p1047
g77
(g78
tRp1048
I0
S'../benchmark_svm.py'
p1049
ssS'instance_durations'
p1050
g82
(g83
(I0
tS'b'
tRp1051
(I1
(I1
tg1022
I00
S'`\x935\xea!\xba\x10@'
tbsa(dp1052
S'status'
p1053
I3
sS'std'
p1054
g72
(g74
S'\x00\x00\x00\x00\x00\x00\x00\x00'
tRp1055
sS'test_additional_data'
p1056
g77
(g78
tRp1057
sS'test_duration'
p1058
Fnan
sS'instance_results'
p1059
g82
(g83
(I0
tS'b'
tRp1060
(I1
(I1
tg73
(S'f8'
I0
I1
tRp1061
(I3
S'<'
NNNI-1
I-1
I0
tbI00
S'\x00\x00\x00\x00\x00\x00\x00\x00'
tbsS'test_std'
p1062
Fnan
sS'instance_status'
p1063
g82
(g83
(I0
tS'b'
tRp1064
(I1
(I1
tg73
(S'i8'
I0
I1
tRp1065
(I3
S'<'
NNNI-1
I-1
I0
tbI00
S'\x03\x00\x00\x00\x00\x00\x00\x00'
tbsS'test_instance_durations'
p1066
g82
(g83
(I0
tS'b'
tRp1067
(I1
(I1
tg1061
I00
S'\x00\x00\x00\x00\x00\x00\xf8\x7f'
tbsS'params'
p1068
g93
((lp1069
(lp1070
S'C'
aS'2789316.35499'
p1071
aa(lp1072
S'Sigma'
p1073
aS'6.881935424e-05'
p1074
aatRp1075
sS'result'
p1076
g72
(g74
S'\x00\x00\x00\x00\x00\x00\x00\x00'
tRp1077
sS'test_instance_status'
p1078
g82
(g83
(I0
tS'b'
tRp1079
(I1
(I1
tg1065
I00
S'\x00\x00\x00\x00\x00\x00\x00\x00'
tbsS'duration'
p1080
g72
(g74
S'V\xf1F\xe6\x91\xbf\x0f@'
tRp1081
sS'test_status'
p1082
I0
sS'test_result'
p1083
Fnan
sS'test_instance_results'
p1084
g82
(g83
(I0
tS'b'
tRp1085
(I1
(I1
tg1061
I00
S'\x00\x00\x00\x00\x00\x00\xf8\x7f'
tbsS'additional_data'
p1086
g77
(g78
tRp1087
I0
S'../benchmark_svm.py'
p1088
ssS'instance_durations'
p1089
g82
(g83
(I0
tS'b'
tRp1090
(I1
(I1
tg1061
I00
S'V\xf1F\xe6\x91\xbf\x0f@'
tbsa(dp1091
S'status'
p1092
I3
sS'std'
p1093
g72
(g74
S'\x00\x00\x00\x00\x00\x00\x00\x00'
tRp1094
sS'test_additional_data'
p1095
g77
(g78
tRp1096
sS'test_duration'
p1097
Fnan
sS'instance_results'
p1098
g82
(g83
(I0
tS'b'
tRp1099
(I1
(I1
tg73
(S'f8'
I0
I1
tRp1100
(I3
S'<'
NNNI-1
I-1
I0
tbI00
S'\x00\x00\x00\x00\x00\x00\x00\x00'
tbsS'test_std'
p1101
Fnan
sS'instance_status'
p1102
g82
(g83
(I0
tS'b'
tRp1103
(I1
(I1
tg73
(S'i8'
I0
I1
tRp1104
(I3
S'<'
NNNI-1
I-1
I0
tbI00
S'\x03\x00\x00\x00\x00\x00\x00\x00'
tbsS'test_instance_durations'
p1105
g82
(g83
(I0
tS'b'
tRp1106
(I1
(I1
tg1100
I00
S'\x00\x00\x00\x00\x00\x00\xf8\x7f'
tbsS'params'
p1107
g93
((lp1108
(lp1109
S'C'
aS'2475.29913178'
p1110
aa(lp1111
S'Sigma'
p1112
aS'0.127206763416'
p1113
aatRp1114
sS'result'
p1115
g72
(g74
S'\x00\x00\x00\x00\x00\x00\x00\x00'
tRp1116
sS'test_instance_status'
p1117
g82
(g83
(I0
tS'b'
tRp1118
(I1
(I1
tg1104
I00
S'\x00\x00\x00\x00\x00\x00\x00\x00'
tbsS'duration'
p1119
g72
(g74
S'\x87\xa2@\x9f\xc8\xd3\x0f@'
tRp1120
sS'test_status'
p1121
I0
sS'test_result'
p1122
Fnan
sS'test_instance_results'
p1123
g82
(g83
(I0
tS'b'
tRp1124
(I1
(I1
tg1100
I00
S'\x00\x00\x00\x00\x00\x00\xf8\x7f'
tbsS'additional_data'
p1125
g77
(g78
tRp1126
I0
S'../benchmark_svm.py'
p1127
ssS'instance_durations'
p1128
g82
(g83
(I0
tS'b'
tRp1129
(I1
(I1
tg1100
I00
S'\x87\xa2@\x9f\xc8\xd3\x0f@'
tbsa(dp1130
S'status'
p1131
I3
sS'std'
p1132
g72
(g74
S'\x00\x00\x00\x00\x00\x00\x00\x00'
tRp1133
sS'test_additional_data'
p1134
g77
(g78
tRp1135
sS'test_duration'
p1136
Fnan
sS'instance_results'
p1137
g82
(g83
(I0
tS'b'
tRp1138
(I1
(I1
tg73
(S'f8'
I0
I1
tRp1139
(I3
S'<'
NNNI-1
I-1
I0
tbI00
S'\x00\x00\x00\x00\x00\x00\x00\x00'
tbsS'test_std'
p1140
Fnan
sS'instance_status'
p1141
g82
(g83
(I0
tS'b'
tRp1142
(I1
(I1
tg73
(S'i8'
I0
I1
tRp1143
(I3
S'<'
NNNI-1
I-1
I0
tbI00
S'\x03\x00\x00\x00\x00\x00\x00\x00'
tbsS'test_instance_durations'
p1144
g82
(g83
(I0
tS'b'
tRp1145
(I1
(I1
tg1139
I00
S'\x00\x00\x00\x00\x00\x00\xf8\x7f'
tbsS'params'
p1146
g93
((lp1147
(lp1148
S'C'
aS'19.648489033'
p1149
aa(lp1150
S'Sigma'
p1151
aS'0.00098122360788'
p1152
aatRp1153
sS'result'
p1154
g72
(g74
S'\x00\x00\x00\x00\x00\x00\x00\x00'
tRp1155
sS'test_instance_status'
p1156
g82
(g83
(I0
tS'b'
tRp1157
(I1
(I1
tg1143
I00
S'\x00\x00\x00\x00\x00\x00\x00\x00'
tbsS'duration'
p1158
g72
(g74
S'\x88.\xa8o\x99\x93\x0f@'
tRp1159
sS'test_status'
p1160
I0
sS'test_result'
p1161
Fnan
sS'test_instance_results'
p1162
g82
(g83
(I0
tS'b'
tRp1163
(I1
(I1
tg1139
I00
S'\x00\x00\x00\x00\x00\x00\xf8\x7f'
tbsS'additional_data'
p1164
g77
(g78
tRp1165
I0
S'../benchmark_svm.py'
p1166
ssS'instance_durations'
p1167
g82
(g83
(I0
tS'b'
tRp1168
(I1
(I1
tg1139
I00
S'\x88.\xa8o\x99\x93\x0f@'
tbsa(dp1169
S'status'
p1170
I3
sS'std'
p1171
g72
(g74
S'\x00\x00\x00\x00\x00\x00\x00\x00'
tRp1172
sS'test_additional_data'
p1173
g77
(g78
tRp1174
sS'test_duration'
p1175
Fnan
sS'instance_results'
p1176
g82
(g83
(I0
tS'b'
tRp1177
(I1
(I1
tg73
(S'f8'
I0
I1
tRp1178
(I3
S'<'
NNNI-1
I-1
I0
tbI00
S'\x00\x00\x00\x00\x00\x00\x00\x00'
tbsS'test_std'
p1179
Fnan
sS'instance_status'
p1180
g82
(g83
(I0
tS'b'
tRp1181
(I1
(I1
tg73
(S'i8'
I0
I1
tRp1182
(I3
S'<'
NNNI-1
I-1
I0
tbI00
S'\x03\x00\x00\x00\x00\x00\x00\x00'
tbsS'test_instance_durations'
p1183
g82
(g83
(I0
tS'b'
tRp1184
(I1
(I1
tg1178
I00
S'\x00\x00\x00\x00\x00\x00\xf8\x7f'
tbsS'params'
p1185
g93
((lp1186
(lp1187
S'C'
aS'239987.869072'
p1188
aa(lp1189
S'Sigma'
p1190
aS'0.00115999525056'
p1191
aatRp1192
sS'result'
p1193
g72
(g74
S'\x00\x00\x00\x00\x00\x00\x00\x00'
tRp1194
sS'test_instance_status'
p1195
g82
(g83
(I0
tS'b'
tRp1196
(I1
(I1
tg1182
I00
S'\x00\x00\x00\x00\x00\x00\x00\x00'
tbsS'duration'
p1197
g72
(g74
S'\x85\xb1\x85 \x07\x05\x10@'
tRp1198
sS'test_status'
p1199
I0
sS'test_result'
p1200
Fnan
sS'test_instance_results'
p1201
g82
(g83
(I0
tS'b'
tRp1202
(I1
(I1
tg1178
I00
S'\x00\x00\x00\x00\x00\x00\xf8\x7f'
tbsS'additional_data'
p1203
g77
(g78
tRp1204
I0
S'../benchmark_svm.py'
p1205
ssS'instance_durations'
p1206
g82
(g83
(I0
tS'b'
tRp1207
(I1
(I1
tg1178
I00
S'\x85\xb1\x85 \x07\x05\x10@'
tbsa(dp1208
S'status'
p1209
I3
sS'std'
p1210
g72
(g74
S'\x00\x00\x00\x00\x00\x00\x00\x00'
tRp1211
sS'test_additional_data'
p1212
g77
(g78
tRp1213
sS'test_duration'
p1214
Fnan
sS'instance_results'
p1215
g82
(g83
(I0
tS'b'
tRp1216
(I1
(I1
tg73
(S'f8'
I0
I1
tRp1217
(I3
S'<'
NNNI-1
I-1
I0
tbI00
S'\x00\x00\x00\x00\x00\x00\x00\x00'
tbsS'test_std'
p1218
Fnan
sS'instance_status'
p1219
g82
(g83
(I0
tS'b'
tRp1220
(I1
(I1
tg73
(S'i8'
I0
I1
tRp1221
(I3
S'<'
NNNI-1
I-1
I0
tbI00
S'\x03\x00\x00\x00\x00\x00\x00\x00'
tbsS'test_instance_durations'
p1222
g82
(g83
(I0
tS'b'
tRp1223
(I1
(I1
tg1217
I00
S'\x00\x00\x00\x00\x00\x00\xf8\x7f'
tbsS'params'
p1224
g93
((lp1225
(lp1226
S'C'
aS'2225.3860197'
p1227
aa(lp1228
S'Sigma'
p1229
aS'0.0206877239844'
p1230
aatRp1231
sS'result'
p1232
g72
(g74
S'\x00\x00\x00\x00\x00\x00\x00\x00'
tRp1233
sS'test_instance_status'
p1234
g82
(g83
(I0
tS'b'
tRp1235
(I1
(I1
tg1221
I00
S'\x00\x00\x00\x00\x00\x00\x00\x00'
tbsS'duration'
p1236
g72
(g74
S'\x9dc@\xf6z\xf7\x0f@'
tRp1237
sS'test_status'
p1238
I0
sS'test_result'
p1239
Fnan
sS'test_instance_results'
p1240
g82
(g83
(I0
tS'b'
tRp1241
(I1
(I1
tg1217
I00
S'\x00\x00\x00\x00\x00\x00\xf8\x7f'
tbsS'additional_data'
p1242
g77
(g78
tRp1243
I0
S'../benchmark_svm.py'
p1244
ssS'instance_durations'
p1245
g82
(g83
(I0
tS'b'
tRp1246
(I1
(I1
tg1217
I00
S'\x9dc@\xf6z\xf7\x0f@'
tbsa(dp1247
S'status'
p1248
I3
sS'std'
p1249
g72
(g74
S'\x00\x00\x00\x00\x00\x00\x00\x00'
tRp1250
sS'test_additional_data'
p1251
g77
(g78
tRp1252
sS'test_duration'
p1253
Fnan
sS'instance_results'
p1254
g82
(g83
(I0
tS'b'
tRp1255
(I1
(I1
tg73
(S'f8'
I0
I1
tRp1256
(I3
S'<'
NNNI-1
I-1
I0
tbI00
S'\xc3\xf1|\x06\xd4\x9b\xde?'
tbsS'test_std'
p1257
Fnan
sS'instance_status'
p1258
g82
(g83
(I0
tS'b'
tRp1259
(I1
(I1
tg73
(S'i8'
I0
I1
tRp1260
(I3
S'<'
NNNI-1
I-1
I0
tbI00
S'\x03\x00\x00\x00\x00\x00\x00\x00'
tbsS'test_instance_durations'
p1261
g82
(g83
(I0
tS'b'
tRp1262
(I1
(I1
tg1256
I00
S'\x00\x00\x00\x00\x00\x00\xf8\x7f'
tbsS'params'
p1263
g93
((lp1264
(lp1265
S'C'
aS'0.119824700059'
p1266
aa(lp1267
S'Sigma'
p1268
aS'0.0014734335182'
p1269
aatRp1270
sS'result'
p1271
g72
(g74
S'\xc3\xf1|\x06\xd4\x9b\xde?'
tRp1272
sS'test_instance_status'
p1273
g82
(g83
(I0
tS'b'
tRp1274
(I1
(I1
tg1260
I00
S'\x00\x00\x00\x00\x00\x00\x00\x00'
tbsS'duration'
p1275
g72
(g74
S'\x03\xcf\xbd\x87K\x0e\x11@'
tRp1276
sS'test_status'
p1277
I0
sS'test_result'
p1278
Fnan
sS'test_instance_results'
p1279
g82
(g83
(I0
tS'b'
tRp1280
(I1
(I1
tg1256
I00
S'\x00\x00\x00\x00\x00\x00\xf8\x7f'
tbsS'additional_data'
p1281
g77
(g78
tRp1282
I0
S'../benchmark_svm.py'
p1283
ssS'instance_durations'
p1284
g82
(g83
(I0
tS'b'
tRp1285
(I1
(I1
tg1256
I00
S'\x03\xcf\xbd\x87K\x0e\x11@'
tbsa(dp1286
S'status'
p1287
I3
sS'std'
p1288
g72
(g74
S'\x00\x00\x00\x00\x00\x00\x00\x00'
tRp1289
sS'test_additional_data'
p1290
g77
(g78
tRp1291
sS'test_duration'
p1292
Fnan
sS'instance_results'
p1293
g82
(g83
(I0
tS'b'
tRp1294
(I1
(I1
tg73
(S'f8'
I0
I1
tRp1295
(I3
S'<'
NNNI-1
I-1
I0
tbI00
S'\x00\x00\x00\x00\x00\x00\x00\x00'
tbsS'test_std'
p1296
Fnan
sS'instance_status'
p1297
g82
(g83
(I0
tS'b'
tRp1298
(I1
(I1
tg73
(S'i8'
I0
I1
tRp1299
(I3
S'<'
NNNI-1
I-1
I0
tbI00
S'\x03\x00\x00\x00\x00\x00\x00\x00'
tbsS'test_instance_durations'
p1300
g82
(g83
(I0
tS'b'
tRp1301
(I1
(I1
tg1295
I00
S'\x00\x00\x00\x00\x00\x00\xf8\x7f'
tbsS'params'
p1302
g93
((lp1303
(lp1304
S'C'
aS'177261.781806'
p1305
aa(lp1306
S'Sigma'
p1307
aS'0.00356892227783'
p1308
aatRp1309
sS'result'
p1310
g72
(g74
S'\x00\x00\x00\x00\x00\x00\x00\x00'
tRp1311
sS'test_instance_status'
p1312
g82
(g83
(I0
tS'b'
tRp1313
(I1
(I1
tg1299
I00
S'\x00\x00\x00\x00\x00\x00\x00\x00'
tbsS'duration'
p1314
g72
(g74
S'\x88.\xa8o\x99\x93\x0f@'
tRp1315
sS'test_status'
p1316
I0
sS'test_result'
p1317
Fnan
sS'test_instance_results'
p1318
g82
(g83
(I0
tS'b'
tRp1319
(I1
(I1
tg1295
I00
S'\x00\x00\x00\x00\x00\x00\xf8\x7f'
tbsS'additional_data'
p1320
g77
(g78
tRp1321
I0
S'../benchmark_svm.py'
p1322
ssS'instance_durations'
p1323
g82
(g83
(I0
tS'b'
tRp1324
(I1
(I1
tg1295
I00
S'\x88.\xa8o\x99\x93\x0f@'
tbsa(dp1325
S'status'
p1326
I3
sS'std'
p1327
g72
(g74
S'\x00\x00\x00\x00\x00\x00\x00\x00'
tRp1328
sS'test_additional_data'
p1329
g77
(g78
tRp1330
sS'test_duration'
p1331
Fnan
sS'instance_results'
p1332
g82
(g83
(I0
tS'b'
tRp1333
(I1
(I1
tg73
(S'f8'
I0
I1
tRp1334
(I3
S'<'
NNNI-1
I-1
I0
tbI00
S'\x00\x00\x00\x00\x00\x00\x00\x00'
tbsS'test_std'
p1335
Fnan
sS'instance_status'
p1336
g82
(g83
(I0
tS'b'
tRp1337
(I1
(I1
tg73
(S'i8'
I0
I1
tRp1338
(I3
S'<'
NNNI-1
I-1
I0
tbI00
S'\x03\x00\x00\x00\x00\x00\x00\x00'
tbsS'test_instance_durations'
p1339
g82
(g83
(I0
tS'b'
tRp1340
(I1
(I1
tg1334
I00
S'\x00\x00\x00\x00\x00\x00\xf8\x7f'
tbsS'params'
p1341
g93
((lp1342
(lp1343
S'C'
aS'39.7857457427'
p1344
aa(lp1345
S'Sigma'
p1346
aS'0.0126715209097'
p1347
aatRp1348
sS'result'
p1349
g72
(g74
S'\x00\x00\x00\x00\x00\x00\x00\x00'
tRp1350
sS'test_instance_status'
p1351
g82
(g83
(I0
tS'b'
tRp1352
(I1
(I1
tg1338
I00
S'\x00\x00\x00\x00\x00\x00\x00\x00'
tbsS'duration'
p1353
g72
(g74
S"e6\xc8$#'\x0f@"
tRp1354
sS'test_status'
p1355
I0
sS'test_result'
p1356
Fnan
sS'test_instance_results'
p1357
g82
(g83
(I0
tS'b'
tRp1358
(I1
(I1
tg1334
I00
S'\x00\x00\x00\x00\x00\x00\xf8\x7f'
tbsS'additional_data'
p1359
g77
(g78
tRp1360
I0
S'../benchmark_svm.py'
p1361
ssS'instance_durations'
p1362
g82
(g83
(I0
tS'b'
tRp1363
(I1
(I1
tg1334
I00
S"e6\xc8$#'\x0f@"
tbsa(dp1364
S'status'
p1365
I3
sS'std'
p1366
g72
(g74
S'\x00\x00\x00\x00\x00\x00\x00\x00'
tRp1367
sS'test_additional_data'
p1368
g77
(g78
tRp1369
sS'test_duration'
p1370
Fnan
sS'instance_results'
p1371
g82
(g83
(I0
tS'b'
tRp1372
(I1
(I1
tg73
(S'f8'
I0
I1
tRp1373
(I3
S'<'
NNNI-1
I-1
I0
tbI00
S'\x84\x84(_\xd0B\xb6?'
tbsS'test_std'
p1374
Fnan
sS'instance_status'
p1375
g82
(g83
(I0
tS'b'
tRp1376
(I1
(I1
tg73
(S'i8'
I0
I1
tRp1377
(I3
S'<'
NNNI-1
I-1
I0
tbI00
S'\x03\x00\x00\x00\x00\x00\x00\x00'
tbsS'test_instance_durations'
p1378
g82
(g83
(I0
tS'b'
tRp1379
(I1
(I1
tg1373
I00
S'\x00\x00\x00\x00\x00\x00\xf8\x7f'
tbsS'params'
p1380
g93
((lp1381
(lp1382
S'C'
aS'836.962854236'
p1383
aa(lp1384
S'Sigma'
p1385
aS'10.3455937051'
p1386
aatRp1387
sS'result'
p1388
g72
(g74
S'\x84\x84(_\xd0B\xb6?'
tRp1389
sS'test_instance_status'
p1390
g82
(g83
(I0
tS'b'
tRp1391
(I1
(I1
tg1377
I00
S'\x00\x00\x00\x00\x00\x00\x00\x00'
tbsS'duration'
p1392
g72
(g74
S'\xf2\xef3.\x1c\x08\x0f@'
tRp1393
sS'test_status'
p1394
I0
sS'test_result'
p1395
Fnan
sS'test_instance_results'
p1396
g82
(g83
(I0
tS'b'
tRp1397
(I1
(I1
tg1373
I00
S'\x00\x00\x00\x00\x00\x00\xf8\x7f'
tbsS'additional_data'
p1398
g77
(g78
tRp1399
I0
S'../benchmark_svm.py'
p1400
ssS'instance_durations'
p1401
g82
(g83
(I0
tS'b'
tRp1402
(I1
(I1
tg1373
I00
S'\xf2\xef3.\x1c\x08\x0f@'
tbsa(dp1403
S'status'
p1404
I3
sS'std'
p1405
g72
(g74
S'\x00\x00\x00\x00\x00\x00\x00\x00'
tRp1406
sS'test_additional_data'
p1407
g77
(g78
tRp1408
sS'test_duration'
p1409
Fnan
sS'instance_results'
p1410
g82
(g83
(I0
tS'b'
tRp1411
(I1
(I1
tg73
(S'f8'
I0
I1
tRp1412
(I3
S'<'
NNNI-1
I-1
I0
tbI00
S'\x00\x00\x00\x00\x00\x00\x00\x00'
tbsS'test_std'
p1413
Fnan
sS'instance_status'
p1414
g82
(g83
(I0
tS'b'
tRp1415
(I1
(I1
tg73
(S'i8'
I0
I1
tRp1416
(I3
S'<'
NNNI-1
I-1
I0
tbI00
S'\x03\x00\x00\x00\x00\x00\x00\x00'
tbsS'test_instance_durations'
p1417
g82
(g83
(I0
tS'b'
tRp1418
(I1
(I1
tg1412
I00
S'\x00\x00\x00\x00\x00\x00\xf8\x7f'
tbsS'params'
p1419
g93
((lp1420
(lp1421
S'C'
aS'85819.3997499'
p1422
aa(lp1423
S'Sigma'
p1424
aS'0.00514486196786'
p1425
aatRp1426
sS'result'
p1427
g72
(g74
S'\x00\x00\x00\x00\x00\x00\x00\x00'
tRp1428
sS'test_instance_status'
p1429
g82
(g83
(I0
tS'b'
tRp1430
(I1
(I1
tg1416
I00
S'\x00\x00\x00\x00\x00\x00\x00\x00'
tbsS'duration'
p1431
g72
(g74
S'\xb2\x9d\xef\xa7\xc6\x0b\x0f@'
tRp1432
sS'test_status'
p1433
I0
sS'test_result'
p1434
Fnan
sS'test_instance_results'
p1435
g82
(g83
(I0
tS'b'
tRp1436
(I1
(I1
tg1412
I00
S'\x00\x00\x00\x00\x00\x00\xf8\x7f'
tbsS'additional_data'
p1437
g77
(g78
tRp1438
I0
S'../benchmark_svm.py'
p1439
ssS'instance_durations'
p1440
g82
(g83
(I0
tS'b'
tRp1441
(I1
(I1
tg1412
I00
S'\xb2\x9d\xef\xa7\xc6\x0b\x0f@'
tbsa(dp1442
S'status'
p1443
I3
sS'std'
p1444
g72
(g74
S'\x00\x00\x00\x00\x00\x00\x00\x00'
tRp1445
sS'test_additional_data'
p1446
g77
(g78
tRp1447
sS'test_duration'
p1448
Fnan
sS'instance_results'
p1449
g82
(g83
(I0
tS'b'
tRp1450
(I1
(I1
tg73
(S'f8'
I0
I1
tRp1451
(I3
S'<'
NNNI-1
I-1
I0
tbI00
S'\x00\x00\x00\x00\x00\x00\x00\x00'
tbsS'test_std'
p1452
Fnan
sS'instance_status'
p1453
g82
(g83
(I0
tS'b'
tRp1454
(I1
(I1
tg73
(S'i8'
I0
I1
tRp1455
(I3
S'<'
NNNI-1
I-1
I0
tbI00
S'\x03\x00\x00\x00\x00\x00\x00\x00'
tbsS'test_instance_durations'
p1456
g82
(g83
(I0
tS'b'
tRp1457
(I1
(I1
tg1451
I00
S'\x00\x00\x00\x00\x00\x00\xf8\x7f'
tbsS'params'
p1458
g93
((lp1459
(lp1460
S'C'
aS'42.8166166542'
p1461
aa(lp1462
S'Sigma'
p1463
aS'0.0088771871676'
p1464
aatRp1465
sS'result'
p1466
g72
(g74
S'\x00\x00\x00\x00\x00\x00\x00\x00'
tRp1467
sS'test_instance_status'
p1468
g82
(g83
(I0
tS'b'
tRp1469
(I1
(I1
tg1455
I00
S'\x00\x00\x00\x00\x00\x00\x00\x00'
tbsS'duration'
p1470
g72
(g74
S'\x03x\x0b$(~\x0e@'
tRp1471
sS'test_status'
p1472
I0
sS'test_result'
p1473
Fnan
sS'test_instance_results'
p1474
g82
(g83
(I0
tS'b'
tRp1475
(I1
(I1
tg1451
I00
S'\x00\x00\x00\x00\x00\x00\xf8\x7f'
tbsS'additional_data'
p1476
g77
(g78
tRp1477
I0
S'../benchmark_svm.py'
p1478
ssS'instance_durations'
p1479
g82
(g83
(I0
tS'b'
tRp1480
(I1
(I1
tg1451
I00
S'\x03x\x0b$(~\x0e@'
tbsa(dp1481
S'status'
p1482
I3
sS'std'
p1483
g72
(g74
S'\x00\x00\x00\x00\x00\x00\x00\x00'
tRp1484
sS'test_additional_data'
p1485
g77
(g78
tRp1486
sS'test_duration'
p1487
Fnan
sS'instance_results'
p1488
g82
(g83
(I0
tS'b'
tRp1489
(I1
(I1
tg73
(S'f8'
I0
I1
tRp1490
(I3
S'<'
NNNI-1
I-1
I0
tbI00
S'\x00\x00\x00\x00\x00\x00\x00\x00'
tbsS'test_std'
p1491
Fnan
sS'instance_status'
p1492
g82
(g83
(I0
tS'b'
tRp1493
(I1
(I1
tg73
(S'i8'
I0
I1
tRp1494
(I3
S'<'
NNNI-1
I-1
I0
tbI00
S'\x03\x00\x00\x00\x00\x00\x00\x00'
tbsS'test_instance_durations'
p1495
g82
(g83
(I0
tS'b'
tRp1496
(I1
(I1
tg1490
I00
S'\x00\x00\x00\x00\x00\x00\xf8\x7f'
tbsS'params'
p1497
g93
((lp1498
(lp1499
S'C'
aS'50.2996345146'
p1500
aa(lp1501
S'Sigma'
p1502
aS'0.000105618519428'
p1503
aatRp1504
sS'result'
p1505
g72
(g74
S'\x00\x00\x00\x00\x00\x00\x00\x00'
tRp1506
sS'test_instance_status'
p1507
g82
(g83
(I0
tS'b'
tRp1508
(I1
(I1
tg1494
I00
S'\x00\x00\x00\x00\x00\x00\x00\x00'
tbsS'duration'
p1509
g72
(g74
S'\x05\xc5\x8f1wm\x0e@'
tRp1510
sS'test_status'
p1511
I0
sS'test_result'
p1512
Fnan
sS'test_instance_results'
p1513
g82
(g83
(I0
tS'b'
tRp1514
(I1
(I1
tg1490
I00
S'\x00\x00\x00\x00\x00\x00\xf8\x7f'
tbsS'additional_data'
p1515
g77
(g78
tRp1516
I0
S'../benchmark_svm.py'
p1517
ssS'instance_durations'
p1518
g82
(g83
(I0
tS'b'
tRp1519
(I1
(I1
tg1490
I00
S'\x05\xc5\x8f1wm\x0e@'
tbsa(dp1520
S'status'
p1521
I3
sS'std'
p1522
g72
(g74
S'\x00\x00\x00\x00\x00\x00\x00\x00'
tRp1523
sS'test_additional_data'
p1524
g77
(g78
tRp1525
sS'test_duration'
p1526
Fnan
sS'instance_results'
p1527
g82
(g83
(I0
tS'b'
tRp1528
(I1
(I1
tg73
(S'f8'
I0
I1
tRp1529
(I3
S'<'
NNNI-1
I-1
I0
tbI00
S'\x00\x00\x00\x00\x00\x00\x00\x00'
tbsS'test_std'
p1530
Fnan
sS'instance_status'
p1531
g82
(g83
(I0
tS'b'
tRp1532
(I1
(I1
tg73
(S'i8'
I0
I1
tRp1533
(I3
S'<'
NNNI-1
I-1
I0
tbI00
S'\x03\x00\x00\x00\x00\x00\x00\x00'
tbsS'test_instance_durations'
p1534
g82
(g83
(I0
tS'b'
tRp1535
(I1
(I1
tg1529
I00
S'\x00\x00\x00\x00\x00\x00\xf8\x7f'
tbsS'params'
p1536
g93
((lp1537
(lp1538
S'C'
aS'1041220.38233'
p1539
aa(lp1540
S'Sigma'
p1541
aS'2.76372910835e-05'
p1542
aatRp1543
sS'result'
p1544
g72
(g74
S'\x00\x00\x00\x00\x00\x00\x00\x00'
tRp1545
sS'test_instance_status'
p1546
g82
(g83
(I0
tS'b'
tRp1547
(I1
(I1
tg1533
I00
S'\x00\x00\x00\x00\x00\x00\x00\x00'
tbsS'duration'
p1548
g72
(g74
S'\xfd\x87\xf4\xdb\xd7A\x0f@'
tRp1549
sS'test_status'
p1550
I0
sS'test_result'
p1551
Fnan
sS'test_instance_results'
p1552
g82
(g83
(I0
tS'b'
tRp1553
(I1
(I1
tg1529
I00
S'\x00\x00\x00\x00\x00\x00\xf8\x7f'
tbsS'additional_data'
p1554
g77
(g78
tRp1555
I0
S'../benchmark_svm.py'
p1556
ssS'instance_durations'
p1557
g82
(g83
(I0
tS'b'
tRp1558
(I1
(I1
tg1529
I00
S'\xfd\x87\xf4\xdb\xd7A\x0f@'
tbsa(dp1559
S'status'
p1560
I3
sS'std'
p1561
g72
(g74
S'\x00\x00\x00\x00\x00\x00\x00\x00'
tRp1562
sS'test_additional_data'
p1563
g77
(g78
tRp1564
sS'test_duration'
p1565
Fnan
sS'instance_results'
p1566
g82
(g83
(I0
tS'b'
tRp1567
(I1
(I1
tg73
(S'f8'
I0
I1
tRp1568
(I3
S'<'
NNNI-1
I-1
I0
tbI00
S'\x00\x00\x00\x00\x00\x00\x00\x00'
tbsS'test_std'
p1569
Fnan
sS'instance_status'
p1570
g82
(g83
(I0
tS'b'
tRp1571
(I1
(I1
tg73
(S'i8'
I0
I1
tRp1572
(I3
S'<'
NNNI-1
I-1
I0
tbI00
S'\x03\x00\x00\x00\x00\x00\x00\x00'
tbsS'test_instance_durations'
p1573
g82
(g83
(I0
tS'b'
tRp1574
(I1
(I1
tg1568
I00
S'\x00\x00\x00\x00\x00\x00\xf8\x7f'
tbsS'params'
p1575
g93
((lp1576
(lp1577
S'C'
aS'3095.19949756'
p1578
aa(lp1579
S'Sigma'
p1580
aS'0.0319720063366'
p1581
aatRp1582
sS'result'
p1583
g72
(g74
S'\x00\x00\x00\x00\x00\x00\x00\x00'
tRp1584
sS'test_instance_status'
p1585
g82
(g83
(I0
tS'b'
tRp1586
(I1
(I1
tg1572
I00
S'\x00\x00\x00\x00\x00\x00\x00\x00'
tbsS'duration'
p1587
g72
(g74
S'C\xc58\x7f\x13\xca\x0e@'
tRp1588
sS'test_status'
p1589
I0
sS'test_result'
p1590
Fnan
sS'test_instance_results'
p1591
g82
(g83
(I0
tS'b'
tRp1592
(I1
(I1
tg1568
I00
S'\x00\x00\x00\x00\x00\x00\xf8\x7f'
tbsS'additional_data'
p1593
g77
(g78
tRp1594
I0
S'../benchmark_svm.py'
p1595
ssS'instance_durations'
p1596
g82
(g83
(I0
tS'b'
tRp1597
(I1
(I1
tg1568
I00
S'C\xc58\x7f\x13\xca\x0e@'
tbsa(dp1598
S'status'
p1599
I3
sS'std'
p1600
g72
(g74
S'\x00\x00\x00\x00\x00\x00\x00\x00'
tRp1601
sS'test_additional_data'
p1602
g77
(g78
tRp1603
sS'test_duration'
p1604
Fnan
sS'instance_results'
p1605
g82
(g83
(I0
tS'b'
tRp1606
(I1
(I1
tg73
(S'f8'
I0
I1
tRp1607
(I3
S'<'
NNNI-1
I-1
I0
tbI00
S')\xb4\xac\xfb\xc7B\xc6?'
tbsS'test_std'
p1608
Fnan
sS'instance_status'
p1609
g82
(g83
(I0
tS'b'
tRp1610
(I1
(I1
tg73
(S'i8'
I0
I1
tRp1611
(I3
S'<'
NNNI-1
I-1
I0
tbI00
S'\x03\x00\x00\x00\x00\x00\x00\x00'
tbsS'test_instance_durations'
p1612
g82
(g83
(I0
tS'b'
tRp1613
(I1
(I1
tg1607
I00
S'\x00\x00\x00\x00\x00\x00\xf8\x7f'
tbsS'params'
p1614
g93
((lp1615
(lp1616
S'C'
aS'6669.29618811'
p1617
aa(lp1618
S'Sigma'
p1619
aS'17.3219208039'
p1620
aatRp1621
sS'result'
p1622
g72
(g74
S')\xb4\xac\xfb\xc7B\xc6?'
tRp1623
sS'test_instance_status'
p1624
g82
(g83
(I0
tS'b'
tRp1625
(I1
(I1
tg1611
I00
S'\x00\x00\x00\x00\x00\x00\x00\x00'
tbsS'duration'
p1626
g72
(g74
S'\xae\r\x15\xe3\xfcM\x0f@'
tRp1627
sS'test_status'
p1628
I0
sS'test_result'
p1629
Fnan
sS'test_instance_results'
p1630
g82
(g83
(I0
tS'b'
tRp1631
(I1
(I1
tg1607
I00
S'\x00\x00\x00\x00\x00\x00\xf8\x7f'
tbsS'additional_data'
p1632
g77
(g78
tRp1633
I0
S'../benchmark_svm.py'
p1634
ssS'instance_durations'
p1635
g82
(g83
(I0
tS'b'
tRp1636
(I1
(I1
tg1607
I00
S'\xae\r\x15\xe3\xfcM\x0f@'
tbsa(dp1637
S'status'
p1638
I3
sS'std'
p1639
g72
(g74
S'\x00\x00\x00\x00\x00\x00\x00\x00'
tRp1640
sS'test_additional_data'
p1641
g77
(g78
tRp1642
sS'test_duration'
p1643
Fnan
sS'instance_results'
p1644
g82
(g83
(I0
tS'b'
tRp1645
(I1
(I1
tg73
(S'f8'
I0
I1
tRp1646
(I3
S'<'
NNNI-1
I-1
I0
tbI00
S'\xc3\xf1|\x06\xd4\x9b\xde?'
tbsS'test_std'
p1647
Fnan
sS'instance_status'
p1648
g82
(g83
(I0
tS'b'
tRp1649
(I1
(I1
tg73
(S'i8'
I0
I1
tRp1650
(I3
S'<'
NNNI-1
I-1
I0
tbI00
S'\x03\x00\x00\x00\x00\x00\x00\x00'
tbsS'test_instance_durations'
p1651
g82
(g83
(I0
tS'b'
tRp1652
(I1
(I1
tg1646
I00
S'\x00\x00\x00\x00\x00\x00\xf8\x7f'
tbsS'params'
p1653
g93
((lp1654
(lp1655
S'C'
aS'1.8610302349'
p1656
aa(lp1657
S'Sigma'
p1658
aS'0.000412273475665'
p1659
aatRp1660
sS'result'
p1661
g72
(g74
S'\xc3\xf1|\x06\xd4\x9b\xde?'
tRp1662
sS'test_instance_status'
p1663
g82
(g83
(I0
tS'b'
tRp1664
(I1
(I1
tg1650
I00
S'\x00\x00\x00\x00\x00\x00\x00\x00'
tbsS'duration'
p1665
g72
(g74
S'W>\xcb\xf3\xe0\x8e\x11@'
tRp1666
sS'test_status'
p1667
I0
sS'test_result'
p1668
Fnan
sS'test_instance_results'
p1669
g82
(g83
(I0
tS'b'
tRp1670
(I1
(I1
tg1646
I00
S'\x00\x00\x00\x00\x00\x00\xf8\x7f'
tbsS'additional_data'
p1671
g77
(g78
tRp1672
I0
S'../benchmark_svm.py'
p1673
ssS'instance_durations'
p1674
g82
(g83
(I0
tS'b'
tRp1675
(I1
(I1
tg1646
I00
S'W>\xcb\xf3\xe0\x8e\x11@'
tbsa(dp1676
S'status'
p1677
I3
sS'std'
p1678
g72
(g74
S'\x00\x00\x00\x00\x00\x00\x00\x00'
tRp1679
sS'test_additional_data'
p1680
g77
(g78
tRp1681
sS'test_duration'
p1682
Fnan
sS'instance_results'
p1683
g82
(g83
(I0
tS'b'
tRp1684
(I1
(I1
tg73
(S'f8'
I0
I1
tRp1685
(I3
S'<'
NNNI-1
I-1
I0
tbI00
S'\x00\x00\x00\x00\x00\x00\x00\x00'
tbsS'test_std'
p1686
Fnan
sS'instance_status'
p1687
g82
(g83
(I0
tS'b'
tRp1688
(I1
(I1
tg73
(S'i8'
I0
I1
tRp1689
(I3
S'<'
NNNI-1
I-1
I0
tbI00
S'\x03\x00\x00\x00\x00\x00\x00\x00'
tbsS'test_instance_durations'
p1690
g82
(g83
(I0
tS'b'
tRp1691
(I1
(I1
tg1685
I00
S'\x00\x00\x00\x00\x00\x00\xf8\x7f'
tbsS'params'
p1692
g93
((lp1693
(lp1694
S'C'
aS'923332.560947'
p1695
aa(lp1696
S'Sigma'
p1697
aS'5.47527536359e-07'
p1698
aatRp1699
sS'result'
p1700
g72
(g74
S'\x00\x00\x00\x00\x00\x00\x00\x00'
tRp1701
sS'test_instance_status'
p1702
g82
(g83
(I0
tS'b'
tRp1703
(I1
(I1
tg1689
I00
S'\x00\x00\x00\x00\x00\x00\x00\x00'
tbsS'duration'
p1704
g72
(g74
S'\xf3\xe5\x05\xd8G\xe7\x0f@'
tRp1705
sS'test_status'
p1706
I0
sS'test_result'
p1707
Fnan
sS'test_instance_results'
p1708
g82
(g83
(I0
tS'b'
tRp1709
(I1
(I1
tg1685
I00
S'\x00\x00\x00\x00\x00\x00\xf8\x7f'
tbsS'additional_data'
p1710
g77
(g78
tRp1711
I0
S'../benchmark_svm.py'
p1712
ssS'instance_durations'
p1713
g82
(g83
(I0
tS'b'
tRp1714
(I1
(I1
tg1685
I00
S'\xf3\xe5\x05\xd8G\xe7\x0f@'
tbsa(dp1715
S'status'
p1716
I3
sS'std'
p1717
g72
(g74
S'\x00\x00\x00\x00\x00\x00\x00\x00'
tRp1718
sS'test_additional_data'
p1719
g77
(g78
tRp1720
sS'test_duration'
p1721
Fnan
sS'instance_results'
p1722
g82
(g83
(I0
tS'b'
tRp1723
(I1
(I1
tg73
(S'f8'
I0
I1
tRp1724
(I3
S'<'
NNNI-1
I-1
I0
tbI00
S'\x00\x00\x00\x00\x00\x00\x00\x00'
tbsS'test_std'
p1725
Fnan
sS'instance_status'
p1726
g82
(g83
(I0
tS'b'
tRp1727
(I1
(I1
tg73
(S'i8'
I0
I1
tRp1728
(I3
S'<'
NNNI-1
I-1
I0
tbI00
S'\x03\x00\x00\x00\x00\x00\x00\x00'
tbsS'test_instance_durations'
p1729
g82
(g83
(I0
tS'b'
tRp1730
(I1
(I1
tg1724
I00
S'\x00\x00\x00\x00\x00\x00\xf8\x7f'
tbsS'params'
p1731
g93
((lp1732
(lp1733
S'C'
aS'110030.711555'
p1734
aa(lp1735
S'Sigma'
p1736
aS'1.8855327566e-06'
p1737
aatRp1738
sS'result'
p1739
g72
(g74
S'\x00\x00\x00\x00\x00\x00\x00\x00'
tRp1740
sS'test_instance_status'
p1741
g82
(g83
(I0
tS'b'
tRp1742
(I1
(I1
tg1728
I00
S'\x00\x00\x00\x00\x00\x00\x00\x00'
tbsS'duration'
p1743
g72
(g74
S'x\x9c\xa2#\xb9\x1c\x12@'
tRp1744
sS'test_status'
p1745
I0
sS'test_result'
p1746
Fnan
sS'test_instance_results'
p1747
g82
(g83
(I0
tS'b'
tRp1748
(I1
(I1
tg1724
I00
S'\x00\x00\x00\x00\x00\x00\xf8\x7f'
tbsS'additional_data'
p1749
g77
(g78
tRp1750
I0
S'../benchmark_svm.py'
p1751
ssS'instance_durations'
p1752
g82
(g83
(I0
tS'b'
tRp1753
(I1
(I1
tg1724
I00
S'x\x9c\xa2#\xb9\x1c\x12@'
tbsa(dp1754
S'status'
p1755
I3
sS'std'
p1756
g72
(g74
S'\x00\x00\x00\x00\x00\x00\x00\x00'
tRp1757
sS'test_additional_data'
p1758
g77
(g78
tRp1759
sS'test_duration'
p1760
Fnan
sS'instance_results'
p1761
g82
(g83
(I0
tS'b'
tRp1762
(I1
(I1
tg73
(S'f8'
I0
I1
tRp1763
(I3
S'<'
NNNI-1
I-1
I0
tbI00
S'\x00\x00\x00\x00\x00\x00\x00\x00'
tbsS'test_std'
p1764
Fnan
sS'instance_status'
p1765
g82
(g83
(I0
tS'b'
tRp1766
(I1
(I1
tg73
(S'i8'
I0
I1
tRp1767
(I3
S'<'
NNNI-1
I-1
I0
tbI00
S'\x03\x00\x00\x00\x00\x00\x00\x00'
tbsS'test_instance_durations'
p1768
g82
(g83
(I0
tS'b'
tRp1769
(I1
(I1
tg1763
I00
S'\x00\x00\x00\x00\x00\x00\xf8\x7f'
tbsS'params'
p1770
g93
((lp1771
(lp1772
S'C'
aS'886792.110765'
p1773
aa(lp1774
S'Sigma'
p1775
aS'5.74263914046e-06'
p1776
aatRp1777
sS'result'
p1778
g72
(g74
S'\x00\x00\x00\x00\x00\x00\x00\x00'
tRp1779
sS'test_instance_status'
p1780
g82
(g83
(I0
tS'b'
tRp1781
(I1
(I1
tg1767
I00
S'\x00\x00\x00\x00\x00\x00\x00\x00'
tbsS'duration'
p1782
g72
(g74
S'w\xa1\xb9N#M\x13@'
tRp1783
sS'test_status'
p1784
I0
sS'test_result'
p1785
Fnan
sS'test_instance_results'
p1786
g82
(g83
(I0
tS'b'
tRp1787
(I1
(I1
tg1763
I00
S'\x00\x00\x00\x00\x00\x00\xf8\x7f'
tbsS'additional_data'
p1788
g77
(g78
tRp1789
I0
S'../benchmark_svm.py'
p1790
ssS'instance_durations'
p1791
g82
(g83
(I0
tS'b'
tRp1792
(I1
(I1
tg1763
I00
S'w\xa1\xb9N#M\x13@'
tbsa(dp1793
S'status'
p1794
I3
sS'std'
p1795
g72
(g74
S'\x00\x00\x00\x00\x00\x00\x00\x00'
tRp1796
sS'test_additional_data'
p1797
g77
(g78
tRp1798
sS'test_duration'
p1799
Fnan
sS'instance_results'
p1800
g82
(g83
(I0
tS'b'
tRp1801
(I1
(I1
tg73
(S'f8'
I0
I1
tRp1802
(I3
S'<'
NNNI-1
I-1
I0
tbI00
S'\x00\x00\x00\x00\x00\x00\x00\x00'
tbsS'test_std'
p1803
Fnan
sS'instance_status'
p1804
g82
(g83
(I0
tS'b'
tRp1805
(I1
(I1
tg73
(S'i8'
I0
I1
tRp1806
(I3
S'<'
NNNI-1
I-1
I0
tbI00
S'\x03\x00\x00\x00\x00\x00\x00\x00'
tbsS'test_instance_durations'
p1807
g82
(g83
(I0
tS'b'
tRp1808
(I1
(I1
tg1802
I00
S'\x00\x00\x00\x00\x00\x00\xf8\x7f'
tbsS'params'
p1809
g93
((lp1810
(lp1811
S'C'
aS'10213.4689492'
p1812
aa(lp1813
S'Sigma'
p1814
aS'0.00015224131901'
p1815
aatRp1816
sS'result'
p1817
g72
(g74
S'\x00\x00\x00\x00\x00\x00\x00\x00'
tRp1818
sS'test_instance_status'
p1819
g82
(g83
(I0
tS'b'
tRp1820
(I1
(I1
tg1806
I00
S'\x00\x00\x00\x00\x00\x00\x00\x00'
tbsS'duration'
p1821
g72
(g74
S'=a\x89\x07\x94M\x11@'
tRp1822
sS'test_status'
p1823
I0
sS'test_result'
p1824
Fnan
sS'test_instance_results'
p1825
g82
(g83
(I0
tS'b'
tRp1826
(I1
(I1
tg1802
I00
S'\x00\x00\x00\x00\x00\x00\xf8\x7f'
tbsS'additional_data'
p1827
g77
(g78
tRp1828
I0
S'../benchmark_svm.py'
p1829
ssS'instance_durations'
p1830
g82
(g83
(I0
tS'b'
tRp1831
(I1
(I1
tg1802
I00
S'=a\x89\x07\x94M\x11@'
tbsa(dp1832
S'status'
p1833
I3
sS'std'
p1834
g72
(g74
S'\x00\x00\x00\x00\x00\x00\x00\x00'
tRp1835
sS'test_additional_data'
p1836
g77
(g78
tRp1837
sS'test_duration'
p1838
Fnan
sS'instance_results'
p1839
g82
(g83
(I0
tS'b'
tRp1840
(I1
(I1
tg73
(S'f8'
I0
I1
tRp1841
(I3
S'<'
NNNI-1
I-1
I0
tbI00
S'\x00\x00\x00\x00\x00\x00\x00\x00'
tbsS'test_std'
p1842
Fnan
sS'instance_status'
p1843
g82
(g83
(I0
tS'b'
tRp1844
(I1
(I1
tg73
(S'i8'
I0
I1
tRp1845
(I3
S'<'
NNNI-1
I-1
I0
tbI00
S'\x03\x00\x00\x00\x00\x00\x00\x00'
tbsS'test_instance_durations'
p1846
g82
(g83
(I0
tS'b'
tRp1847
(I1
(I1
tg1841
I00
S'\x00\x00\x00\x00\x00\x00\xf8\x7f'
tbsS'params'
p1848
g93
((lp1849
(lp1850
S'C'
aS'454692.006383'
p1851
aa(lp1852
S'Sigma'
p1853
aS'3.60241504382e-05'
p1854
aatRp1855
sS'result'
p1856
g72
(g74
S'\x00\x00\x00\x00\x00\x00\x00\x00'
tRp1857
sS'test_instance_status'
p1858
g82
(g83
(I0
tS'b'
tRp1859
(I1
(I1
tg1845
I00
S'\x00\x00\x00\x00\x00\x00\x00\x00'
tbsS'duration'
p1860
g72
(g74
S'\tm9\x97\xe2\x8a\x10@'
tRp1861
sS'test_status'
p1862
I0
sS'test_result'
p1863
Fnan
sS'test_instance_results'
p1864
g82
(g83
(I0
tS'b'
tRp1865
(I1
(I1
tg1841
I00
S'\x00\x00\x00\x00\x00\x00\xf8\x7f'
tbsS'additional_data'
p1866
g77
(g78
tRp1867
I0
S'../benchmark_svm.py'
p1868
ssS'instance_durations'
p1869
g82
(g83
(I0
tS'b'
tRp1870
(I1
(I1
tg1841
I00
S'\tm9\x97\xe2\x8a\x10@'
tbsa(dp1871
S'status'
p1872
I3
sS'std'
p1873
g72
(g74
S'\x00\x00\x00\x00\x00\x00\x00\x00'
tRp1874
sS'test_additional_data'
p1875
g77
(g78
tRp1876
sS'test_duration'
p1877
Fnan
sS'instance_results'
p1878
g82
(g83
(I0
tS'b'
tRp1879
(I1
(I1
tg73
(S'f8'
I0
I1
tRp1880
(I3
S'<'
NNNI-1
I-1
I0
tbI00
S'\x00\x00\x00\x00\x00\x00\x00\x00'
tbsS'test_std'
p1881
Fnan
sS'instance_status'
p1882
g82
(g83
(I0
tS'b'
tRp1883
(I1
(I1
tg73
(S'i8'
I0
I1
tRp1884
(I3
S'<'
NNNI-1
I-1
I0
tbI00
S'\x03\x00\x00\x00\x00\x00\x00\x00'
tbsS'test_instance_durations'
p1885
g82
(g83
(I0
tS'b'
tRp1886
(I1
(I1
tg1880
I00
S'\x00\x00\x00\x00\x00\x00\xf8\x7f'
tbsS'params'
p1887
g93
((lp1888
(lp1889
S'C'
aS'8131.74945685'
p1890
aa(lp1891
S'Sigma'
p1892
aS'0.531788347241'
p1893
aatRp1894
sS'result'
p1895
g72
(g74
S'\x00\x00\x00\x00\x00\x00\x00\x00'
tRp1896
sS'test_instance_status'
p1897
g82
(g83
(I0
tS'b'
tRp1898
(I1
(I1
tg1884
I00
S'\x00\x00\x00\x00\x00\x00\x00\x00'
tbsS'duration'
p1899
g72
(g74
S'\x0cY\xdd\xea9\xa9\x0e@'
tRp1900
sS'test_status'
p1901
I0
sS'test_result'
p1902
Fnan
sS'test_instance_results'
p1903
g82
(g83
(I0
tS'b'
tRp1904
(I1
(I1
tg1880
I00
S'\x00\x00\x00\x00\x00\x00\xf8\x7f'
tbsS'additional_data'
p1905
g77
(g78
tRp1906
I0
S'../benchmark_svm.py'
p1907
ssS'instance_durations'
p1908
g82
(g83
(I0
tS'b'
tRp1909
(I1
(I1
tg1880
I00
S'\x0cY\xdd\xea9\xa9\x0e@'
tbsa(dp1910
S'status'
p1911
I3
sS'std'
p1912
g72
(g74
S'\x00\x00\x00\x00\x00\x00\x00\x00'
tRp1913
sS'test_additional_data'
p1914
g77
(g78
tRp1915
sS'test_duration'
p1916
Fnan
sS'instance_results'
p1917
g82
(g83
(I0
tS'b'
tRp1918
(I1
(I1
tg73
(S'f8'
I0
I1
tRp1919
(I3
S'<'
NNNI-1
I-1
I0
tbI00
S'\x00\x00\x00\x00\x00\x00\x00\x00'
tbsS'test_std'
p1920
Fnan
sS'instance_status'
p1921
g82
(g83
(I0
tS'b'
tRp1922
(I1
(I1
tg73
(S'i8'
I0
I1
tRp1923
(I3
S'<'
NNNI-1
I-1
I0
tbI00
S'\x03\x00\x00\x00\x00\x00\x00\x00'
tbsS'test_instance_durations'
p1924
g82
(g83
(I0
tS'b'
tRp1925
(I1
(I1
tg1919
I00
S'\x00\x00\x00\x00\x00\x00\xf8\x7f'
tbsS'params'
p1926
g93
((lp1927
(lp1928
S'C'
aS'47189.014611'
p1929
aa(lp1930
S'Sigma'
p1931
aS'4.05451449304e-05'
p1932
aatRp1933
sS'result'
p1934
g72
(g74
S'\x00\x00\x00\x00\x00\x00\x00\x00'
tRp1935
sS'test_instance_status'
p1936
g82
(g83
(I0
tS'b'
tRp1937
(I1
(I1
tg1923
I00
S'\x00\x00\x00\x00\x00\x00\x00\x00'
tbsS'duration'
p1938
g72
(g74
S'\xa6\nF%uB\x0f@'
tRp1939
sS'test_status'
p1940
I0
sS'test_result'
p1941
Fnan
sS'test_instance_results'
p1942
g82
(g83
(I0
tS'b'
tRp1943
(I1
(I1
tg1919
I00
S'\x00\x00\x00\x00\x00\x00\xf8\x7f'
tbsS'additional_data'
p1944
g77
(g78
tRp1945
I0
S'../benchmark_svm.py'
p1946
ssS'instance_durations'
p1947
g82
(g83
(I0
tS'b'
tRp1948
(I1
(I1
tg1919
I00
S'\xa6\nF%uB\x0f@'
tbsa(dp1949
S'status'
p1950
I3
sS'std'
p1951
g72
(g74
S'\x00\x00\x00\x00\x00\x00\x00\x00'
tRp1952
sS'test_additional_data'
p1953
g77
(g78
tRp1954
sS'test_duration'
p1955
Fnan
sS'instance_results'
p1956
g82
(g83
(I0
tS'b'
tRp1957
(I1
(I1
tg73
(S'f8'
I0
I1
tRp1958
(I3
S'<'
NNNI-1
I-1
I0
tbI00
S'\x84\x84(_\xd0B\xb6?'
tbsS'test_std'
p1959
Fnan
sS'instance_status'
p1960
g82
(g83
(I0
tS'b'
tRp1961
(I1
(I1
tg73
(S'i8'
I0
I1
tRp1962
(I3
S'<'
NNNI-1
I-1
I0
tbI00
S'\x03\x00\x00\x00\x00\x00\x00\x00'
tbsS'test_instance_durations'
p1963
g82
(g83
(I0
tS'b'
tRp1964
(I1
(I1
tg1958
I00
S'\x00\x00\x00\x00\x00\x00\xf8\x7f'
tbsS'params'
p1965
g93
((lp1966
(lp1967
S'C'
aS'4.04390362909'
p1968
aa(lp1969
S'Sigma'
p1970
aS'0.000414300438922'
p1971
aatRp1972
sS'result'
p1973
g72
(g74
S'\x84\x84(_\xd0B\xb6?'
tRp1974
sS'test_instance_status'
p1975
g82
(g83
(I0
tS'b'
tRp1976
(I1
(I1
tg1962
I00
S'\x00\x00\x00\x00\x00\x00\x00\x00'
tbsS'duration'
p1977
g72
(g74
S'\x1b\x12\xf7X\xfaP\x0e@'
tRp1978
sS'test_status'
p1979
I0
sS'test_result'
p1980
Fnan
sS'test_instance_results'
p1981
g82
(g83
(I0
tS'b'
tRp1982
(I1
(I1
tg1958
I00
S'\x00\x00\x00\x00\x00\x00\xf8\x7f'
tbsS'additional_data'
p1983
g77
(g78
tRp1984
I0
S'../benchmark_svm.py'
p1985
ssS'instance_durations'
p1986
g82
(g83
(I0
tS'b'
tRp1987
(I1
(I1
tg1958
I00
S'\x1b\x12\xf7X\xfaP\x0e@'
tbsa(dp1988
S'status'
p1989
I3
sS'std'
p1990
g72
(g74
S'\x00\x00\x00\x00\x00\x00\x00\x00'
tRp1991
sS'test_additional_data'
p1992
g77
(g78
tRp1993
sS'test_duration'
p1994
Fnan
sS'instance_results'
p1995
g82
(g83
(I0
tS'b'
tRp1996
(I1
(I1
tg73
(S'f8'
I0
I1
tRp1997
(I3
S'<'
NNNI-1
I-1
I0
tbI00
S'\x00\x00\x00\x00\x00\x00\x00\x00'
tbsS'test_std'
p1998
Fnan
sS'instance_status'
p1999
g82
(g83
(I0
tS'b'
tRp2000
(I1
(I1
tg73
(S'i8'
I0
I1
tRp2001
(I3
S'<'
NNNI-1
I-1
I0
tbI00
S'\x03\x00\x00\x00\x00\x00\x00\x00'
tbsS'test_instance_durations'
p2002
g82
(g83
(I0
tS'b'
tRp2003
(I1
(I1
tg1997
I00
S'\x00\x00\x00\x00\x00\x00\xf8\x7f'
tbsS'params'
p2004
g93
((lp2005
(lp2006
S'C'
aS'705.490673926'
p2007
aa(lp2008
S'Sigma'
p2009
aS'9.39951205182e-06'
p2010
aatRp2011
sS'result'
p2012
g72
(g74
S'\x00\x00\x00\x00\x00\x00\x00\x00'
tRp2013
sS'test_instance_status'
p2014
g82
(g83
(I0
tS'b'
tRp2015
(I1
(I1
tg2001
I00
S'\x00\x00\x00\x00\x00\x00\x00\x00'
tbsS'duration'
p2016
g72
(g74
S'\xb8\x92\x1d\x1b\x81\xf8\x0e@'
tRp2017
sS'test_status'
p2018
I0
sS'test_result'
p2019
Fnan
sS'test_instance_results'
p2020
g82
(g83
(I0
tS'b'
tRp2021
(I1
(I1
tg1997
I00
S'\x00\x00\x00\x00\x00\x00\xf8\x7f'
tbsS'additional_data'
p2022
g77
(g78
tRp2023
I0
S'../benchmark_svm.py'
p2024
ssS'instance_durations'
p2025
g82
(g83
(I0
tS'b'
tRp2026
(I1
(I1
tg1997
I00
S'\xb8\x92\x1d\x1b\x81\xf8\x0e@'
tbsasS'total_wallclock_time'
p2027
F199.83588000000003
sS'experiment_name'
p2028
S'hyperopt_august2013_mod'
p2029
sS'starttime'
p2030
(lp2031
F1482194360.7464199
as.